   1               		.file	"ulib.c"
   2               	__SREG__ = 0x3f
   3               	__SP_H__ = 0x3e
   4               	__SP_L__ = 0x3d
   5               	__tmp_reg__ = 0
   6               	__zero_reg__ = 1
   7               		.global __do_copy_data
   8               		.global __do_clear_bss
  11               		.text
  12               	.Ltext0:
 117               	.global	nrk_uart_rx_signal_get
 119               	nrk_uart_rx_signal_get:
 120               		.stabd	46,0,0
   1:../../../nano-RK/src/platform/micaZ/source/ulib.c **** /******************************************************************************
   2:../../../nano-RK/src/platform/micaZ/source/ulib.c **** *  Nano-RK, a real-time operating system for sensor networks.
   3:../../../nano-RK/src/platform/micaZ/source/ulib.c **** *  Copyright (C) 2007, Real-Time and Multimedia Lab, Carnegie Mellon University
   4:../../../nano-RK/src/platform/micaZ/source/ulib.c **** *  All rights reserved.
   5:../../../nano-RK/src/platform/micaZ/source/ulib.c **** *
   6:../../../nano-RK/src/platform/micaZ/source/ulib.c **** *  This is the Open Source Version of Nano-RK included as part of a Dual
   7:../../../nano-RK/src/platform/micaZ/source/ulib.c **** *  Licensing Model. If you are unsure which license to use please refer to:
   8:../../../nano-RK/src/platform/micaZ/source/ulib.c **** *  http://www.nanork.org/nano-RK/wiki/Licensing
   9:../../../nano-RK/src/platform/micaZ/source/ulib.c **** *
  10:../../../nano-RK/src/platform/micaZ/source/ulib.c **** *  This program is free software: you can redistribute it and/or modify
  11:../../../nano-RK/src/platform/micaZ/source/ulib.c **** *  it under the terms of the GNU General Public License as published by
  12:../../../nano-RK/src/platform/micaZ/source/ulib.c **** *  the Free Software Foundation, version 2.0 of the License.
  13:../../../nano-RK/src/platform/micaZ/source/ulib.c **** *
  14:../../../nano-RK/src/platform/micaZ/source/ulib.c **** *  This program is distributed in the hope that it will be useful,
  15:../../../nano-RK/src/platform/micaZ/source/ulib.c **** *  but WITHOUT ANY WARRANTY; without even the implied warranty of
  16:../../../nano-RK/src/platform/micaZ/source/ulib.c **** *  MERCHANTABILITY or FITNESS FOR A PARTICULAR PURPOSE.  See the
  17:../../../nano-RK/src/platform/micaZ/source/ulib.c **** *  GNU General Public License for more details.
  18:../../../nano-RK/src/platform/micaZ/source/ulib.c **** *
  19:../../../nano-RK/src/platform/micaZ/source/ulib.c **** *  You should have received a copy of the GNU General Public License
  20:../../../nano-RK/src/platform/micaZ/source/ulib.c **** *  along with this program.  If not, see <http://www.gnu.org/licenses/>.
  21:../../../nano-RK/src/platform/micaZ/source/ulib.c **** *
  22:../../../nano-RK/src/platform/micaZ/source/ulib.c **** *  Contributing Authors (specific to this file):
  23:../../../nano-RK/src/platform/micaZ/source/ulib.c **** *  Anthony Rowe
  24:../../../nano-RK/src/platform/micaZ/source/ulib.c **** *  Nuno Pereira
  25:../../../nano-RK/src/platform/micaZ/source/ulib.c **** *  Chipcon Development Team 
  26:../../../nano-RK/src/platform/micaZ/source/ulib.c **** *******************************************************************************/
  27:../../../nano-RK/src/platform/micaZ/source/ulib.c **** 
  28:../../../nano-RK/src/platform/micaZ/source/ulib.c **** 
  29:../../../nano-RK/src/platform/micaZ/source/ulib.c **** #include <include.h>
  30:../../../nano-RK/src/platform/micaZ/source/ulib.c **** #include <ulib.h>
  31:../../../nano-RK/src/platform/micaZ/source/ulib.c **** #include <stdio.h>
  32:../../../nano-RK/src/platform/micaZ/source/ulib.c **** #include <hal.h>
  33:../../../nano-RK/src/platform/micaZ/source/ulib.c **** #include <hal_micaZ.h>
  34:../../../nano-RK/src/platform/micaZ/source/ulib.c **** #include <avr/interrupt.h>
  35:../../../nano-RK/src/platform/micaZ/source/ulib.c **** #include <nrk_pin_define.h>
  36:../../../nano-RK/src/platform/micaZ/source/ulib.c **** #include <nrk_error.h>
  37:../../../nano-RK/src/platform/micaZ/source/ulib.c **** #include <nrk_events.h>
  38:../../../nano-RK/src/platform/micaZ/source/ulib.c **** 
  39:../../../nano-RK/src/platform/micaZ/source/ulib.c **** #ifdef NANORK
  40:../../../nano-RK/src/platform/micaZ/source/ulib.c **** #include <nrk_cfg.h>
  41:../../../nano-RK/src/platform/micaZ/source/ulib.c **** #endif
  42:../../../nano-RK/src/platform/micaZ/source/ulib.c **** 
  43:../../../nano-RK/src/platform/micaZ/source/ulib.c **** #ifdef NRK_UART_BUF
  44:../../../nano-RK/src/platform/micaZ/source/ulib.c **** #include <nrk_events.h>
  45:../../../nano-RK/src/platform/micaZ/source/ulib.c **** 
  46:../../../nano-RK/src/platform/micaZ/source/ulib.c **** #ifndef MAX_RX_UART_BUF
  47:../../../nano-RK/src/platform/micaZ/source/ulib.c **** #define MAX_RX_UART_BUF    16
  48:../../../nano-RK/src/platform/micaZ/source/ulib.c **** #endif
  49:../../../nano-RK/src/platform/micaZ/source/ulib.c **** 
  50:../../../nano-RK/src/platform/micaZ/source/ulib.c **** 
  51:../../../nano-RK/src/platform/micaZ/source/ulib.c **** uint8_t uart_rx_buf_start,uart_rx_buf_end;
  52:../../../nano-RK/src/platform/micaZ/source/ulib.c **** char uart_rx_buf[MAX_RX_UART_BUF];
  53:../../../nano-RK/src/platform/micaZ/source/ulib.c **** nrk_sig_t uart_rx_signal;
  54:../../../nano-RK/src/platform/micaZ/source/ulib.c **** 
  55:../../../nano-RK/src/platform/micaZ/source/ulib.c **** SIGNAL(USART0_RX_vect)
  56:../../../nano-RK/src/platform/micaZ/source/ulib.c **** {
  57:../../../nano-RK/src/platform/micaZ/source/ulib.c **** char c;
  58:../../../nano-RK/src/platform/micaZ/source/ulib.c **** uint8_t sig;
  59:../../../nano-RK/src/platform/micaZ/source/ulib.c ****    DISABLE_UART0_RX_INT();
  60:../../../nano-RK/src/platform/micaZ/source/ulib.c ****    UART0_WAIT_AND_RECEIVE(c);
  61:../../../nano-RK/src/platform/micaZ/source/ulib.c ****    uart_rx_buf[uart_rx_buf_end]=c;
  62:../../../nano-RK/src/platform/micaZ/source/ulib.c ****    //if(uart_rx_buf_end==uart_rx_buf_start) sig=1; else sig=0;
  63:../../../nano-RK/src/platform/micaZ/source/ulib.c ****    uart_rx_buf_end++;
  64:../../../nano-RK/src/platform/micaZ/source/ulib.c ****    if(uart_rx_buf_end==MAX_RX_UART_BUF) uart_rx_buf_end=0;
  65:../../../nano-RK/src/platform/micaZ/source/ulib.c ****    nrk_event_signal(uart_rx_signal);
  66:../../../nano-RK/src/platform/micaZ/source/ulib.c **** CLEAR_UART0_RX_INT();
  67:../../../nano-RK/src/platform/micaZ/source/ulib.c **** ENABLE_UART0_RX_INT();
  68:../../../nano-RK/src/platform/micaZ/source/ulib.c **** }
  69:../../../nano-RK/src/platform/micaZ/source/ulib.c **** 
  70:../../../nano-RK/src/platform/micaZ/source/ulib.c **** char getc0()
  71:../../../nano-RK/src/platform/micaZ/source/ulib.c **** {
  72:../../../nano-RK/src/platform/micaZ/source/ulib.c **** char tmp;
  73:../../../nano-RK/src/platform/micaZ/source/ulib.c **** 
  74:../../../nano-RK/src/platform/micaZ/source/ulib.c **** if(uart_rx_buf_start!=uart_rx_buf_end)
  75:../../../nano-RK/src/platform/micaZ/source/ulib.c ****    {
  76:../../../nano-RK/src/platform/micaZ/source/ulib.c ****    tmp=uart_rx_buf[uart_rx_buf_start];
  77:../../../nano-RK/src/platform/micaZ/source/ulib.c ****    uart_rx_buf_start++;
  78:../../../nano-RK/src/platform/micaZ/source/ulib.c ****    if(uart_rx_buf_start==MAX_RX_UART_BUF) uart_rx_buf_start=0;
  79:../../../nano-RK/src/platform/micaZ/source/ulib.c ****    return(tmp);
  80:../../../nano-RK/src/platform/micaZ/source/ulib.c ****    }
  81:../../../nano-RK/src/platform/micaZ/source/ulib.c **** // if buffer empty, then we have to block for it
  82:../../../nano-RK/src/platform/micaZ/source/ulib.c **** UART0_WAIT_AND_RECEIVE(tmp);
  83:../../../nano-RK/src/platform/micaZ/source/ulib.c **** return tmp;
  84:../../../nano-RK/src/platform/micaZ/source/ulib.c **** }
  85:../../../nano-RK/src/platform/micaZ/source/ulib.c **** 
  86:../../../nano-RK/src/platform/micaZ/source/ulib.c **** uint8_t nrk_uart_data_ready(uint8_t uart_num)
  87:../../../nano-RK/src/platform/micaZ/source/ulib.c **** {
  88:../../../nano-RK/src/platform/micaZ/source/ulib.c **** if(uart_num==0)
  89:../../../nano-RK/src/platform/micaZ/source/ulib.c **** 	{
  90:../../../nano-RK/src/platform/micaZ/source/ulib.c **** 	if(uart_rx_buf_start!=uart_rx_buf_end) return 1;
  91:../../../nano-RK/src/platform/micaZ/source/ulib.c **** 	}
  92:../../../nano-RK/src/platform/micaZ/source/ulib.c **** if(uart_num==1)
  93:../../../nano-RK/src/platform/micaZ/source/ulib.c ****         {
  94:../../../nano-RK/src/platform/micaZ/source/ulib.c ****         if( UCSR1A & BM(RXC1) ) return 1;
  95:../../../nano-RK/src/platform/micaZ/source/ulib.c ****         }
  96:../../../nano-RK/src/platform/micaZ/source/ulib.c **** return 0;
  97:../../../nano-RK/src/platform/micaZ/source/ulib.c **** }
  98:../../../nano-RK/src/platform/micaZ/source/ulib.c **** 
  99:../../../nano-RK/src/platform/micaZ/source/ulib.c **** nrk_sig_t nrk_uart_rx_signal_get()
 100:../../../nano-RK/src/platform/micaZ/source/ulib.c **** {
 101:../../../nano-RK/src/platform/micaZ/source/ulib.c ****    if(uart_rx_signal==NRK_ERROR) nrk_error_add(NRK_SIGNAL_CREATE_ERROR);
 102:../../../nano-RK/src/platform/micaZ/source/ulib.c ****    return uart_rx_signal;
 103:../../../nano-RK/src/platform/micaZ/source/ulib.c **** }
 104:../../../nano-RK/src/platform/micaZ/source/ulib.c **** 
 105:../../../nano-RK/src/platform/micaZ/source/ulib.c **** #else
 106:../../../nano-RK/src/platform/micaZ/source/ulib.c **** 
 107:../../../nano-RK/src/platform/micaZ/source/ulib.c **** nrk_sig_t nrk_uart_rx_signal_get()
 108:../../../nano-RK/src/platform/micaZ/source/ulib.c **** {
 122               	.LM0:
 123               	.LFBB1:
 124               	/* prologue: function */
 125               	/* frame size = 0 */
 109:../../../nano-RK/src/platform/micaZ/source/ulib.c ****    return NRK_ERROR;
 110:../../../nano-RK/src/platform/micaZ/source/ulib.c **** }
 127               	.LM1:
 128 0000 8FEF      		ldi r24,lo8(-1)
 129               	/* epilogue start */
 130 0002 0895      		ret
 132               	.Lscope1:
 134               		.stabd	78,0,0
 137               	.global	nrk_uart_data_ready
 139               	nrk_uart_data_ready:
 140               		.stabd	46,0,0
 111:../../../nano-RK/src/platform/micaZ/source/ulib.c **** 
 112:../../../nano-RK/src/platform/micaZ/source/ulib.c **** 
 113:../../../nano-RK/src/platform/micaZ/source/ulib.c **** uint8_t nrk_uart_data_ready(uint8_t uart_num)
 114:../../../nano-RK/src/platform/micaZ/source/ulib.c **** {
 142               	.LM2:
 143               	.LFBB2:
 144               	/* prologue: function */
 145               	/* frame size = 0 */
 115:../../../nano-RK/src/platform/micaZ/source/ulib.c **** if(uart_num==0)
 147               	.LM3:
 148 0004 8823      		tst r24
 149 0006 01F4      		brne .L4
 116:../../../nano-RK/src/platform/micaZ/source/ulib.c ****         {
 117:../../../nano-RK/src/platform/micaZ/source/ulib.c ****         if( UCSR0A & BM(RXC0) ) return 1;
 151               	.LM4:
 152 0008 8BB1      		in r24,43-0x20
 153 000a 881F      		rol r24
 154 000c 8827      		clr r24
 155 000e 881F      		rol r24
 156 0010 0895      		ret
 157               	.L4:
 118:../../../nano-RK/src/platform/micaZ/source/ulib.c ****         }
 119:../../../nano-RK/src/platform/micaZ/source/ulib.c **** if(uart_num==1)
 159               	.LM5:
 160 0012 8130      		cpi r24,lo8(1)
 161 0014 01F0      		breq .L7
 162 0016 80E0      		ldi r24,lo8(0)
 163 0018 0895      		ret
 164               	.L7:
 120:../../../nano-RK/src/platform/micaZ/source/ulib.c ****         {
 121:../../../nano-RK/src/platform/micaZ/source/ulib.c ****         if( UCSR1A & BM(RXC1) ) return 1;
 166               	.LM6:
 167 001a 8091 9B00 		lds r24,155
 168 001e 881F      		rol r24
 169 0020 8827      		clr r24
 170 0022 881F      		rol r24
 122:../../../nano-RK/src/platform/micaZ/source/ulib.c ****         }
 123:../../../nano-RK/src/platform/micaZ/source/ulib.c **** return 0;
 124:../../../nano-RK/src/platform/micaZ/source/ulib.c **** }
 172               	.LM7:
 173 0024 0895      		ret
 175               	.Lscope2:
 177               		.stabd	78,0,0
 179               	.global	getc0
 181               	getc0:
 182               		.stabd	46,0,0
 125:../../../nano-RK/src/platform/micaZ/source/ulib.c **** 
 126:../../../nano-RK/src/platform/micaZ/source/ulib.c **** char getc0(void){
 184               	.LM8:
 185               	.LFBB3:
 186               	/* prologue: function */
 187               	/* frame size = 0 */
 188               	.L12:
 127:../../../nano-RK/src/platform/micaZ/source/ulib.c ****         unsigned char tmp;
 128:../../../nano-RK/src/platform/micaZ/source/ulib.c ****         UART0_WAIT_AND_RECEIVE(tmp);
 190               	.LM9:
 191 0026 5F9B      		sbis 43-0x20,7
 192 0028 00C0      		rjmp .L12
 193 002a 5F98      		cbi 43-0x20,7
 194 002c 8CB1      		in r24,44-0x20
 195               	/* epilogue start */
 129:../../../nano-RK/src/platform/micaZ/source/ulib.c ****         return tmp;
 130:../../../nano-RK/src/platform/micaZ/source/ulib.c **** }
 197               	.LM10:
 198 002e 0895      		ret
 203               	.Lscope3:
 205               		.stabd	78,0,0
 207               	.global	nrk_setup_ports
 209               	nrk_setup_ports:
 210               		.stabd	46,0,0
 131:../../../nano-RK/src/platform/micaZ/source/ulib.c **** 
 132:../../../nano-RK/src/platform/micaZ/source/ulib.c **** #endif
 133:../../../nano-RK/src/platform/micaZ/source/ulib.c **** 
 134:../../../nano-RK/src/platform/micaZ/source/ulib.c **** void nrk_kprintf( const char *addr)
 135:../../../nano-RK/src/platform/micaZ/source/ulib.c **** {
 136:../../../nano-RK/src/platform/micaZ/source/ulib.c ****  char c;
 137:../../../nano-RK/src/platform/micaZ/source/ulib.c ****    while((c=pgm_read_byte(addr++)))
 138:../../../nano-RK/src/platform/micaZ/source/ulib.c ****         putchar(c);
 139:../../../nano-RK/src/platform/micaZ/source/ulib.c **** }
 140:../../../nano-RK/src/platform/micaZ/source/ulib.c **** 
 141:../../../nano-RK/src/platform/micaZ/source/ulib.c **** 
 142:../../../nano-RK/src/platform/micaZ/source/ulib.c **** void nrk_setup_ports()
 143:../../../nano-RK/src/platform/micaZ/source/ulib.c **** {
 212               	.LM11:
 213               	.LFBB4:
 214               	/* prologue: function */
 215               	/* frame size = 0 */
 144:../../../nano-RK/src/platform/micaZ/source/ulib.c **** PORT_INIT();
 217               	.LM12:
 218 0030 80B5      		in r24,64-0x20
 219 0032 8460      		ori r24,lo8(4)
 220 0034 80BD      		out 64-0x20,r24
 221 0036 87E0      		ldi r24,lo8(7)
 222 0038 87BB      		out 55-0x20,r24
 223 003a 88BB      		out 56-0x20,r24
 224 003c 82E0      		ldi r24,lo8(2)
 225 003e 82B9      		out 34-0x20,r24
 226 0040 87E6      		ldi r24,lo8(103)
 227 0042 8ABB      		out 58-0x20,r24
 228 0044 80E4      		ldi r24,lo8(64)
 229 0046 8BBB      		out 59-0x20,r24
 145:../../../nano-RK/src/platform/micaZ/source/ulib.c **** SPI_INIT();
 231               	.LM13:
 232 0048 80E5      		ldi r24,lo8(80)
 233 004a 8DB9      		out 45-0x20,r24
 234 004c 81E0      		ldi r24,lo8(1)
 235 004e 8EB9      		out 46-0x20,r24
 236               	/* epilogue start */
 146:../../../nano-RK/src/platform/micaZ/source/ulib.c **** }
 238               	.LM14:
 239 0050 0895      		ret
 241               	.Lscope4:
 243               		.stabd	78,0,0
 246               	.global	nrk_gpio_set
 248               	nrk_gpio_set:
 249               		.stabd	46,0,0
 147:../../../nano-RK/src/platform/micaZ/source/ulib.c **** 
 148:../../../nano-RK/src/platform/micaZ/source/ulib.c **** 
 149:../../../nano-RK/src/platform/micaZ/source/ulib.c **** 
 150:../../../nano-RK/src/platform/micaZ/source/ulib.c **** 
 151:../../../nano-RK/src/platform/micaZ/source/ulib.c **** //---------------------------------------------------------------------------------------------
 152:../../../nano-RK/src/platform/micaZ/source/ulib.c **** // GPIO related definitions
 153:../../../nano-RK/src/platform/micaZ/source/ulib.c **** 
 154:../../../nano-RK/src/platform/micaZ/source/ulib.c **** //-------------------------------
 155:../../../nano-RK/src/platform/micaZ/source/ulib.c **** // Define nrk pins mappings to hardware pins and ports
 156:../../../nano-RK/src/platform/micaZ/source/ulib.c **** 
 157:../../../nano-RK/src/platform/micaZ/source/ulib.c **** 
 158:../../../nano-RK/src/platform/micaZ/source/ulib.c **** //-------------------------------
 159:../../../nano-RK/src/platform/micaZ/source/ulib.c **** // Port A
 160:../../../nano-RK/src/platform/micaZ/source/ulib.c **** NRK_PIN( LED_0, LED_0, NRK_PORTA )
 161:../../../nano-RK/src/platform/micaZ/source/ulib.c **** NRK_PIN( LED_1, LED_1, NRK_PORTA )
 162:../../../nano-RK/src/platform/micaZ/source/ulib.c **** NRK_PIN( LED_2, LED_2, NRK_PORTA )
 163:../../../nano-RK/src/platform/micaZ/source/ulib.c **** NRK_PIN( VREG_EN, VREG_EN, NRK_PORTA )
 164:../../../nano-RK/src/platform/micaZ/source/ulib.c **** NRK_PIN( RESET_N, RESET_N, NRK_PORTA )
 165:../../../nano-RK/src/platform/micaZ/source/ulib.c **** 
 166:../../../nano-RK/src/platform/micaZ/source/ulib.c **** //-------------------------------
 167:../../../nano-RK/src/platform/micaZ/source/ulib.c **** // Port B
 168:../../../nano-RK/src/platform/micaZ/source/ulib.c **** NRK_PIN( CSN, CSN, NRK_PORTB )
 169:../../../nano-RK/src/platform/micaZ/source/ulib.c **** NRK_PIN( SCK, SCK, NRK_PORTB )
 170:../../../nano-RK/src/platform/micaZ/source/ulib.c **** NRK_PIN( MOSI, MOSI, NRK_PORTB )
 171:../../../nano-RK/src/platform/micaZ/source/ulib.c **** NRK_PIN( MISO, MISO, NRK_PORTB )
 172:../../../nano-RK/src/platform/micaZ/source/ulib.c **** NRK_PIN( FIFO, FIFO, NRK_PORTB )
 173:../../../nano-RK/src/platform/micaZ/source/ulib.c **** 
 174:../../../nano-RK/src/platform/micaZ/source/ulib.c **** //-------------------------------
 175:../../../nano-RK/src/platform/micaZ/source/ulib.c **** // Port D
 176:../../../nano-RK/src/platform/micaZ/source/ulib.c **** NRK_PIN( UART1_RXD, UART1_RXD, NRK_PORTD )
 177:../../../nano-RK/src/platform/micaZ/source/ulib.c **** NRK_PIN( UART1_TXD, UART1_TXD, NRK_PORTD )
 178:../../../nano-RK/src/platform/micaZ/source/ulib.c **** NRK_PIN( SFD, SFD, NRK_PORTD )
 179:../../../nano-RK/src/platform/micaZ/source/ulib.c **** NRK_PIN( UART1_RTS, UART1_RTS, NRK_PORTD )
 180:../../../nano-RK/src/platform/micaZ/source/ulib.c **** NRK_PIN( CCA, CCA, NRK_PORTD )
 181:../../../nano-RK/src/platform/micaZ/source/ulib.c **** NRK_PIN( UART1_CTS, UART1_CTS, NRK_PORTD )
 182:../../../nano-RK/src/platform/micaZ/source/ulib.c **** //-------------------------------
 183:../../../nano-RK/src/platform/micaZ/source/ulib.c **** // Port E
 184:../../../nano-RK/src/platform/micaZ/source/ulib.c **** NRK_PIN( UART0_RXD, UART0_RXD, NRK_PORTE ) 
 185:../../../nano-RK/src/platform/micaZ/source/ulib.c **** NRK_PIN( UART0_TXD, UART0_TXD, NRK_PORTE )  
 186:../../../nano-RK/src/platform/micaZ/source/ulib.c **** NRK_PIN( FIFOP, FIFOP, NRK_PORTE ) 
 187:../../../nano-RK/src/platform/micaZ/source/ulib.c **** //-------------------------------
 188:../../../nano-RK/src/platform/micaZ/source/ulib.c **** // Port F
 189:../../../nano-RK/src/platform/micaZ/source/ulib.c **** // ADC inputs
 190:../../../nano-RK/src/platform/micaZ/source/ulib.c **** NRK_PIN( ADC_INPUT_0, ADC_INPUT_0, NRK_PORTF ) 
 191:../../../nano-RK/src/platform/micaZ/source/ulib.c **** NRK_PIN( ADC_INPUT_1, ADC_INPUT_1, NRK_PORTF ) 
 192:../../../nano-RK/src/platform/micaZ/source/ulib.c **** NRK_PIN( ADC_INPUT_2, ADC_INPUT_2, NRK_PORTF ) 
 193:../../../nano-RK/src/platform/micaZ/source/ulib.c **** NRK_PIN( ADC_INPUT_3, ADC_INPUT_3, NRK_PORTF ) 
 194:../../../nano-RK/src/platform/micaZ/source/ulib.c **** 
 195:../../../nano-RK/src/platform/micaZ/source/ulib.c **** NRK_PIN( ADC_INPUT_6, 6, NRK_PORTF ) 
 196:../../../nano-RK/src/platform/micaZ/source/ulib.c **** NRK_PIN( ADC_INPUT_7, 7, NRK_PORTF ) 
 197:../../../nano-RK/src/platform/micaZ/source/ulib.c **** 
 198:../../../nano-RK/src/platform/micaZ/source/ulib.c **** NRK_PIN( DEBUG_0, DEBUG_0, NRK_PORTC )
 199:../../../nano-RK/src/platform/micaZ/source/ulib.c **** NRK_PIN( DEBUG_1, DEBUG_1, NRK_PORTC )
 200:../../../nano-RK/src/platform/micaZ/source/ulib.c **** 
 201:../../../nano-RK/src/platform/micaZ/source/ulib.c **** NRK_INVALID_PIN( DEBUG_2 )
 202:../../../nano-RK/src/platform/micaZ/source/ulib.c **** NRK_INVALID_PIN( DEBUG_3 )
 203:../../../nano-RK/src/platform/micaZ/source/ulib.c **** 
 204:../../../nano-RK/src/platform/micaZ/source/ulib.c **** // pins that do not exist in this platform
 205:../../../nano-RK/src/platform/micaZ/source/ulib.c **** //NRK_INVALID_PIN( DEBUG_0 )
 206:../../../nano-RK/src/platform/micaZ/source/ulib.c **** //NRK_INVALID_PIN( DEBUG_1 )
 207:../../../nano-RK/src/platform/micaZ/source/ulib.c **** NRK_INVALID_PIN( LED_3 )
 208:../../../nano-RK/src/platform/micaZ/source/ulib.c **** NRK_INVALID_PIN( BLED )
 209:../../../nano-RK/src/platform/micaZ/source/ulib.c **** NRK_INVALID_PIN( SPI_SS )
 210:../../../nano-RK/src/platform/micaZ/source/ulib.c **** NRK_INVALID_PIN( GPIO26 )
 211:../../../nano-RK/src/platform/micaZ/source/ulib.c **** NRK_INVALID_PIN( GPIO28 )
 212:../../../nano-RK/src/platform/micaZ/source/ulib.c **** NRK_INVALID_PIN( GPIO34 )
 213:../../../nano-RK/src/platform/micaZ/source/ulib.c **** 
 214:../../../nano-RK/src/platform/micaZ/source/ulib.c **** //-------------------------------
 215:../../../nano-RK/src/platform/micaZ/source/ulib.c **** // GPIO handling functions
 216:../../../nano-RK/src/platform/micaZ/source/ulib.c **** int8_t nrk_gpio_set(uint8_t pin)
 217:../../../nano-RK/src/platform/micaZ/source/ulib.c **** {
 251               	.LM15:
 252               	.LFBB5:
 253               	/* prologue: function */
 254               	/* frame size = 0 */
 218:../../../nano-RK/src/platform/micaZ/source/ulib.c ****         if (pin == NRK_INVALID_PIN_VAL) return -1;
 256               	.LM16:
 257 0052 8F3F      		cpi r24,lo8(-1)
 258 0054 01F4      		brne .+2
 259 0056 00C0      		rjmp .L18
 219:../../../nano-RK/src/platform/micaZ/source/ulib.c ****         switch (pin & 0x07) {
 261               	.LM17:
 262 0058 282F      		mov r18,r24
 263 005a 30E0      		ldi r19,lo8(0)
 264 005c 2770      		andi r18,lo8(7)
 265 005e 3070      		andi r19,hi8(7)
 266 0060 2230      		cpi r18,2
 267 0062 3105      		cpc r19,__zero_reg__
 268 0064 01F0      		breq .L21
 269 0066 2330      		cpi r18,3
 270 0068 3105      		cpc r19,__zero_reg__
 271 006a 04F4      		brge .L25
 272 006c 2115      		cp r18,__zero_reg__
 273 006e 3105      		cpc r19,__zero_reg__
 274 0070 01F0      		breq .L19
 275 0072 2130      		cpi r18,1
 276 0074 3105      		cpc r19,__zero_reg__
 277 0076 01F0      		breq .+2
 278 0078 00C0      		rjmp .L18
 279 007a 00C0      		rjmp .L31
 280               	.L25:
 281 007c 2430      		cpi r18,4
 282 007e 3105      		cpc r19,__zero_reg__
 283 0080 01F4      		brne .+2
 284 0082 00C0      		rjmp .L23
 285 0084 2430      		cpi r18,4
 286 0086 3105      		cpc r19,__zero_reg__
 287 0088 04F0      		brlt .L22
 288 008a 2530      		cpi r18,5
 289 008c 3105      		cpc r19,__zero_reg__
 290 008e 01F0      		breq .+2
 291 0090 00C0      		rjmp .L18
 292 0092 00C0      		rjmp .L32
 293               	.L19:
 220:../../../nano-RK/src/platform/micaZ/source/ulib.c ****                 case NRK_PORTA:
 221:../../../nano-RK/src/platform/micaZ/source/ulib.c ****                         do { PORTA |= BM((pin & 0xF8) >> 3); } while(0); break; 
 295               	.LM18:
 296 0094 9BB3      		in r25,59-0x20
 297 0096 8695      		lsr r24
 298 0098 8695      		lsr r24
 299 009a 8695      		lsr r24
 300 009c 41E0      		ldi r20,lo8(1)
 301 009e 50E0      		ldi r21,hi8(1)
 302 00a0 00C0      		rjmp 2f
 303 00a2 440F      	1:	lsl r20
 304 00a4 551F      		rol r21
 305 00a6 8A95      	2:	dec r24
 306 00a8 02F4      		brpl 1b
 307 00aa 942B      		or r25,r20
 308 00ac 9BBB      		out 59-0x20,r25
 309 00ae 00C0      		rjmp .L28
 310               	.L31:
 222:../../../nano-RK/src/platform/micaZ/source/ulib.c ****                 case NRK_PORTB:
 223:../../../nano-RK/src/platform/micaZ/source/ulib.c ****                         do { PORTB |= BM((pin & 0xF8) >> 3); } while(0); break; 
 312               	.LM19:
 313 00b0 98B3      		in r25,56-0x20
 314 00b2 8695      		lsr r24
 315 00b4 8695      		lsr r24
 316 00b6 8695      		lsr r24
 317 00b8 00C0      		rjmp 2f
 318 00ba 220F      	1:	lsl r18
 319 00bc 331F      		rol r19
 320 00be 8A95      	2:	dec r24
 321 00c0 02F4      		brpl 1b
 322 00c2 922B      		or r25,r18
 323 00c4 98BB      		out 56-0x20,r25
 324 00c6 00C0      		rjmp .L28
 325               	.L21:
 224:../../../nano-RK/src/platform/micaZ/source/ulib.c ****                 case NRK_PORTC:
 225:../../../nano-RK/src/platform/micaZ/source/ulib.c ****                         do { PORTC |= BM((pin & 0xF8) >> 3); } while(0); break; 
 327               	.LM20:
 328 00c8 95B3      		in r25,53-0x20
 329 00ca 8695      		lsr r24
 330 00cc 8695      		lsr r24
 331 00ce 8695      		lsr r24
 332 00d0 41E0      		ldi r20,lo8(1)
 333 00d2 50E0      		ldi r21,hi8(1)
 334 00d4 00C0      		rjmp 2f
 335 00d6 440F      	1:	lsl r20
 336 00d8 551F      		rol r21
 337 00da 8A95      	2:	dec r24
 338 00dc 02F4      		brpl 1b
 339 00de 942B      		or r25,r20
 340 00e0 95BB      		out 53-0x20,r25
 341 00e2 00C0      		rjmp .L28
 342               	.L22:
 226:../../../nano-RK/src/platform/micaZ/source/ulib.c ****                 case NRK_PORTD:
 227:../../../nano-RK/src/platform/micaZ/source/ulib.c ****                         do { PORTD |= BM((pin & 0xF8) >> 3); } while(0); break; 
 344               	.LM21:
 345 00e4 92B3      		in r25,50-0x20
 346 00e6 8695      		lsr r24
 347 00e8 8695      		lsr r24
 348 00ea 8695      		lsr r24
 349 00ec 41E0      		ldi r20,lo8(1)
 350 00ee 50E0      		ldi r21,hi8(1)
 351 00f0 00C0      		rjmp 2f
 352 00f2 440F      	1:	lsl r20
 353 00f4 551F      		rol r21
 354 00f6 8A95      	2:	dec r24
 355 00f8 02F4      		brpl 1b
 356 00fa 942B      		or r25,r20
 357 00fc 92BB      		out 50-0x20,r25
 358 00fe 00C0      		rjmp .L28
 359               	.L23:
 228:../../../nano-RK/src/platform/micaZ/source/ulib.c ****                 case NRK_PORTE:
 229:../../../nano-RK/src/platform/micaZ/source/ulib.c ****                         do { PORTE |= BM((pin & 0xF8) >> 3); } while(0); break; 
 361               	.LM22:
 362 0100 93B1      		in r25,35-0x20
 363 0102 8695      		lsr r24
 364 0104 8695      		lsr r24
 365 0106 8695      		lsr r24
 366 0108 41E0      		ldi r20,lo8(1)
 367 010a 50E0      		ldi r21,hi8(1)
 368 010c 00C0      		rjmp 2f
 369 010e 440F      	1:	lsl r20
 370 0110 551F      		rol r21
 371 0112 8A95      	2:	dec r24
 372 0114 02F4      		brpl 1b
 373 0116 942B      		or r25,r20
 374 0118 93B9      		out 35-0x20,r25
 375 011a 00C0      		rjmp .L28
 376               	.L32:
 230:../../../nano-RK/src/platform/micaZ/source/ulib.c ****                 case NRK_PORTF:
 231:../../../nano-RK/src/platform/micaZ/source/ulib.c ****                         do { PORTF |= BM((pin & 0xF8) >> 3); } while(0); break; 
 378               	.LM23:
 379 011c 9091 6200 		lds r25,98
 380 0120 8695      		lsr r24
 381 0122 8695      		lsr r24
 382 0124 8695      		lsr r24
 383 0126 41E0      		ldi r20,lo8(1)
 384 0128 50E0      		ldi r21,hi8(1)
 385 012a 00C0      		rjmp 2f
 386 012c 440F      	1:	lsl r20
 387 012e 551F      		rol r21
 388 0130 8A95      	2:	dec r24
 389 0132 02F4      		brpl 1b
 390 0134 942B      		or r25,r20
 391 0136 9093 6200 		sts 98,r25
 392               	.L28:
 393 013a 81E0      		ldi r24,lo8(1)
 394 013c 0895      		ret
 395               	.L18:
 396 013e 8FEF      		ldi r24,lo8(-1)
 232:../../../nano-RK/src/platform/micaZ/source/ulib.c ****                 default: return -1;
 233:../../../nano-RK/src/platform/micaZ/source/ulib.c ****         }
 234:../../../nano-RK/src/platform/micaZ/source/ulib.c ****         return 1;
 235:../../../nano-RK/src/platform/micaZ/source/ulib.c **** }
 398               	.LM24:
 399 0140 0895      		ret
 401               	.Lscope5:
 403               		.stabd	78,0,0
 406               	.global	nrk_gpio_clr
 408               	nrk_gpio_clr:
 409               		.stabd	46,0,0
 236:../../../nano-RK/src/platform/micaZ/source/ulib.c **** 
 237:../../../nano-RK/src/platform/micaZ/source/ulib.c **** int8_t nrk_gpio_clr(uint8_t pin)
 238:../../../nano-RK/src/platform/micaZ/source/ulib.c **** {
 411               	.LM25:
 412               	.LFBB6:
 413               	/* prologue: function */
 414               	/* frame size = 0 */
 239:../../../nano-RK/src/platform/micaZ/source/ulib.c ****         if (pin == NRK_INVALID_PIN_VAL) return -1;
 416               	.LM26:
 417 0142 8F3F      		cpi r24,lo8(-1)
 418 0144 01F4      		brne .+2
 419 0146 00C0      		rjmp .L34
 240:../../../nano-RK/src/platform/micaZ/source/ulib.c ****         switch (pin & 0x07) {
 421               	.LM27:
 422 0148 282F      		mov r18,r24
 423 014a 30E0      		ldi r19,lo8(0)
 424 014c 2770      		andi r18,lo8(7)
 425 014e 3070      		andi r19,hi8(7)
 426 0150 2230      		cpi r18,2
 427 0152 3105      		cpc r19,__zero_reg__
 428 0154 01F0      		breq .L37
 429 0156 2330      		cpi r18,3
 430 0158 3105      		cpc r19,__zero_reg__
 431 015a 04F4      		brge .L41
 432 015c 2115      		cp r18,__zero_reg__
 433 015e 3105      		cpc r19,__zero_reg__
 434 0160 01F0      		breq .L35
 435 0162 2130      		cpi r18,1
 436 0164 3105      		cpc r19,__zero_reg__
 437 0166 01F0      		breq .+2
 438 0168 00C0      		rjmp .L34
 439 016a 00C0      		rjmp .L47
 440               	.L41:
 441 016c 2430      		cpi r18,4
 442 016e 3105      		cpc r19,__zero_reg__
 443 0170 01F4      		brne .+2
 444 0172 00C0      		rjmp .L39
 445 0174 2430      		cpi r18,4
 446 0176 3105      		cpc r19,__zero_reg__
 447 0178 04F0      		brlt .L38
 448 017a 2530      		cpi r18,5
 449 017c 3105      		cpc r19,__zero_reg__
 450 017e 01F0      		breq .+2
 451 0180 00C0      		rjmp .L34
 452 0182 00C0      		rjmp .L48
 453               	.L35:
 241:../../../nano-RK/src/platform/micaZ/source/ulib.c ****                 case NRK_PORTA:
 242:../../../nano-RK/src/platform/micaZ/source/ulib.c ****                         do { PORTA &= ~BM((pin & 0xF8) >> 3); } while(0); break;
 455               	.LM28:
 456 0184 3BB3      		in r19,59-0x20
 457 0186 282F      		mov r18,r24
 458 0188 2695      		lsr r18
 459 018a 2695      		lsr r18
 460 018c 2695      		lsr r18
 461 018e 81E0      		ldi r24,lo8(1)
 462 0190 90E0      		ldi r25,hi8(1)
 463 0192 00C0      		rjmp 2f
 464 0194 880F      	1:	lsl r24
 465 0196 991F      		rol r25
 466 0198 2A95      	2:	dec r18
 467 019a 02F4      		brpl 1b
 468 019c 8095      		com r24
 469 019e 8323      		and r24,r19
 470 01a0 8BBB      		out 59-0x20,r24
 471 01a2 00C0      		rjmp .L44
 472               	.L47:
 243:../../../nano-RK/src/platform/micaZ/source/ulib.c ****                 case NRK_PORTB:
 244:../../../nano-RK/src/platform/micaZ/source/ulib.c ****                         do { PORTB &= ~BM((pin & 0xF8) >> 3); } while(0); break;
 474               	.LM29:
 475 01a4 98B3      		in r25,56-0x20
 476 01a6 8695      		lsr r24
 477 01a8 8695      		lsr r24
 478 01aa 8695      		lsr r24
 479 01ac 00C0      		rjmp 2f
 480 01ae 220F      	1:	lsl r18
 481 01b0 331F      		rol r19
 482 01b2 8A95      	2:	dec r24
 483 01b4 02F4      		brpl 1b
 484 01b6 2095      		com r18
 485 01b8 2923      		and r18,r25
 486 01ba 28BB      		out 56-0x20,r18
 487 01bc 00C0      		rjmp .L44
 488               	.L37:
 245:../../../nano-RK/src/platform/micaZ/source/ulib.c ****                 case NRK_PORTC:
 246:../../../nano-RK/src/platform/micaZ/source/ulib.c ****                         do { PORTC &= ~BM((pin & 0xF8) >> 3); } while(0); break; 
 490               	.LM30:
 491 01be 35B3      		in r19,53-0x20
 492 01c0 282F      		mov r18,r24
 493 01c2 2695      		lsr r18
 494 01c4 2695      		lsr r18
 495 01c6 2695      		lsr r18
 496 01c8 81E0      		ldi r24,lo8(1)
 497 01ca 90E0      		ldi r25,hi8(1)
 498 01cc 00C0      		rjmp 2f
 499 01ce 880F      	1:	lsl r24
 500 01d0 991F      		rol r25
 501 01d2 2A95      	2:	dec r18
 502 01d4 02F4      		brpl 1b
 503 01d6 8095      		com r24
 504 01d8 8323      		and r24,r19
 505 01da 85BB      		out 53-0x20,r24
 506 01dc 00C0      		rjmp .L44
 507               	.L38:
 247:../../../nano-RK/src/platform/micaZ/source/ulib.c ****                 case NRK_PORTD:
 248:../../../nano-RK/src/platform/micaZ/source/ulib.c ****                         do { PORTD &= ~BM((pin & 0xF8) >> 3); } while(0); break; 
 509               	.LM31:
 510 01de 32B3      		in r19,50-0x20
 511 01e0 282F      		mov r18,r24
 512 01e2 2695      		lsr r18
 513 01e4 2695      		lsr r18
 514 01e6 2695      		lsr r18
 515 01e8 81E0      		ldi r24,lo8(1)
 516 01ea 90E0      		ldi r25,hi8(1)
 517 01ec 00C0      		rjmp 2f
 518 01ee 880F      	1:	lsl r24
 519 01f0 991F      		rol r25
 520 01f2 2A95      	2:	dec r18
 521 01f4 02F4      		brpl 1b
 522 01f6 8095      		com r24
 523 01f8 8323      		and r24,r19
 524 01fa 82BB      		out 50-0x20,r24
 525 01fc 00C0      		rjmp .L44
 526               	.L39:
 249:../../../nano-RK/src/platform/micaZ/source/ulib.c ****                 case NRK_PORTE:
 250:../../../nano-RK/src/platform/micaZ/source/ulib.c ****                         do { PORTE &= ~BM((pin & 0xF8) >> 3); } while(0); break; 
 528               	.LM32:
 529 01fe 33B1      		in r19,35-0x20
 530 0200 282F      		mov r18,r24
 531 0202 2695      		lsr r18
 532 0204 2695      		lsr r18
 533 0206 2695      		lsr r18
 534 0208 81E0      		ldi r24,lo8(1)
 535 020a 90E0      		ldi r25,hi8(1)
 536 020c 00C0      		rjmp 2f
 537 020e 880F      	1:	lsl r24
 538 0210 991F      		rol r25
 539 0212 2A95      	2:	dec r18
 540 0214 02F4      		brpl 1b
 541 0216 8095      		com r24
 542 0218 8323      		and r24,r19
 543 021a 83B9      		out 35-0x20,r24
 544 021c 00C0      		rjmp .L44
 545               	.L48:
 251:../../../nano-RK/src/platform/micaZ/source/ulib.c ****                 case NRK_PORTF:
 252:../../../nano-RK/src/platform/micaZ/source/ulib.c ****                         do { PORTF &= ~BM((pin & 0xF8) >> 3); } while(0); break; 
 547               	.LM33:
 548 021e 3091 6200 		lds r19,98
 549 0222 282F      		mov r18,r24
 550 0224 2695      		lsr r18
 551 0226 2695      		lsr r18
 552 0228 2695      		lsr r18
 553 022a 81E0      		ldi r24,lo8(1)
 554 022c 90E0      		ldi r25,hi8(1)
 555 022e 00C0      		rjmp 2f
 556 0230 880F      	1:	lsl r24
 557 0232 991F      		rol r25
 558 0234 2A95      	2:	dec r18
 559 0236 02F4      		brpl 1b
 560 0238 8095      		com r24
 561 023a 8323      		and r24,r19
 562 023c 8093 6200 		sts 98,r24
 563               	.L44:
 564 0240 81E0      		ldi r24,lo8(1)
 565 0242 0895      		ret
 566               	.L34:
 567 0244 8FEF      		ldi r24,lo8(-1)
 253:../../../nano-RK/src/platform/micaZ/source/ulib.c ****                 default: return -1;
 254:../../../nano-RK/src/platform/micaZ/source/ulib.c ****         }
 255:../../../nano-RK/src/platform/micaZ/source/ulib.c ****         return 1;
 256:../../../nano-RK/src/platform/micaZ/source/ulib.c **** }
 569               	.LM34:
 570 0246 0895      		ret
 572               	.Lscope6:
 574               		.stabd	78,0,0
 577               	.global	nrk_gpio_get
 579               	nrk_gpio_get:
 580               		.stabd	46,0,0
 257:../../../nano-RK/src/platform/micaZ/source/ulib.c **** 
 258:../../../nano-RK/src/platform/micaZ/source/ulib.c **** int8_t nrk_gpio_get(uint8_t pin)
 259:../../../nano-RK/src/platform/micaZ/source/ulib.c **** {
 582               	.LM35:
 583               	.LFBB7:
 584               	/* prologue: function */
 585               	/* frame size = 0 */
 260:../../../nano-RK/src/platform/micaZ/source/ulib.c ****     if (pin == NRK_INVALID_PIN_VAL) return -1;
 587               	.LM36:
 588 0248 8F3F      		cpi r24,lo8(-1)
 589 024a 01F0      		breq .L50
 261:../../../nano-RK/src/platform/micaZ/source/ulib.c ****         switch (pin & 0x07) {
 591               	.LM37:
 592 024c 282F      		mov r18,r24
 593 024e 30E0      		ldi r19,lo8(0)
 594 0250 2770      		andi r18,lo8(7)
 595 0252 3070      		andi r19,hi8(7)
 596 0254 2230      		cpi r18,2
 597 0256 3105      		cpc r19,__zero_reg__
 598 0258 01F0      		breq .L53
 599 025a 2330      		cpi r18,3
 600 025c 3105      		cpc r19,__zero_reg__
 601 025e 04F4      		brge .L57
 602 0260 2115      		cp r18,__zero_reg__
 603 0262 3105      		cpc r19,__zero_reg__
 604 0264 01F0      		breq .L51
 605 0266 2130      		cpi r18,1
 606 0268 3105      		cpc r19,__zero_reg__
 607 026a 01F4      		brne .L50
 608 026c 00C0      		rjmp .L63
 609               	.L57:
 610 026e 2430      		cpi r18,4
 611 0270 3105      		cpc r19,__zero_reg__
 612 0272 01F0      		breq .L55
 613 0274 2430      		cpi r18,4
 614 0276 3105      		cpc r19,__zero_reg__
 615 0278 04F0      		brlt .L54
 616 027a 2530      		cpi r18,5
 617 027c 3105      		cpc r19,__zero_reg__
 618 027e 01F4      		brne .L50
 619 0280 00C0      		rjmp .L64
 620               	.L51:
 262:../../../nano-RK/src/platform/micaZ/source/ulib.c ****                 case NRK_PORTA:
 263:../../../nano-RK/src/platform/micaZ/source/ulib.c ****                         return !!(PINA & BM((pin & 0xF8) >> 3));
 622               	.LM38:
 623 0282 29B3      		in r18,57-0x20
 624 0284 00C0      		rjmp .L60
 625               	.L63:
 264:../../../nano-RK/src/platform/micaZ/source/ulib.c ****                 case NRK_PORTB:
 265:../../../nano-RK/src/platform/micaZ/source/ulib.c ****                         return !!(PINB & BM((pin & 0xF8) >> 3));
 627               	.LM39:
 628 0286 26B3      		in r18,54-0x20
 629 0288 00C0      		rjmp .L60
 630               	.L53:
 266:../../../nano-RK/src/platform/micaZ/source/ulib.c ****                 case NRK_PORTC:
 267:../../../nano-RK/src/platform/micaZ/source/ulib.c ****                         return !!(PINC & BM((pin & 0xF8) >> 3));
 632               	.LM40:
 633 028a 23B3      		in r18,51-0x20
 634 028c 00C0      		rjmp .L60
 635               	.L54:
 268:../../../nano-RK/src/platform/micaZ/source/ulib.c ****                 case NRK_PORTD:
 269:../../../nano-RK/src/platform/micaZ/source/ulib.c ****                         return !!(PIND & BM((pin & 0xF8) >> 3));
 637               	.LM41:
 638 028e 20B3      		in r18,48-0x20
 639 0290 00C0      		rjmp .L60
 640               	.L55:
 270:../../../nano-RK/src/platform/micaZ/source/ulib.c ****                 case NRK_PORTE:
 271:../../../nano-RK/src/platform/micaZ/source/ulib.c ****                         return !!(PINE & BM((pin & 0xF8) >> 3));
 642               	.LM42:
 643 0292 21B1      		in r18,33-0x20
 644 0294 00C0      		rjmp .L60
 645               	.L64:
 272:../../../nano-RK/src/platform/micaZ/source/ulib.c ****                 case NRK_PORTF:
 273:../../../nano-RK/src/platform/micaZ/source/ulib.c ****                         return !!(PINF & BM((pin & 0xF8) >> 3));
 647               	.LM43:
 648 0296 20B1      		in r18,32-0x20
 649               	.L60:
 650 0298 30E0      		ldi r19,lo8(0)
 651 029a 8695      		lsr r24
 652 029c 8695      		lsr r24
 653 029e 8695      		lsr r24
 654 02a0 00C0      		rjmp 2f
 655 02a2 3595      	1:	asr r19
 656 02a4 2795      		ror r18
 657 02a6 8A95      	2:	dec r24
 658 02a8 02F4      		brpl 1b
 659 02aa 822F      		mov r24,r18
 660 02ac 8170      		andi r24,lo8(1)
 661 02ae 0895      		ret
 662               	.L50:
 663 02b0 8FEF      		ldi r24,lo8(-1)
 274:../../../nano-RK/src/platform/micaZ/source/ulib.c ****                 default: return -1;
 275:../../../nano-RK/src/platform/micaZ/source/ulib.c ****         }
 276:../../../nano-RK/src/platform/micaZ/source/ulib.c ****         return 1;
 277:../../../nano-RK/src/platform/micaZ/source/ulib.c **** }
 665               	.LM44:
 666 02b2 0895      		ret
 668               	.Lscope7:
 670               		.stabd	78,0,0
 673               	.global	nrk_gpio_pullups
 675               	nrk_gpio_pullups:
 676               		.stabd	46,0,0
 278:../../../nano-RK/src/platform/micaZ/source/ulib.c **** 
 279:../../../nano-RK/src/platform/micaZ/source/ulib.c **** int8_t nrk_gpio_pullups(uint8_t enable)
 280:../../../nano-RK/src/platform/micaZ/source/ulib.c **** {
 678               	.LM45:
 679               	.LFBB8:
 680               	/* prologue: function */
 681               	/* frame size = 0 */
 281:../../../nano-RK/src/platform/micaZ/source/ulib.c **** if(enable) SFIOR &= ~BM(PUD);
 683               	.LM46:
 684 02b4 8823      		tst r24
 685 02b6 01F0      		breq .L66
 686 02b8 80B5      		in r24,64-0x20
 687 02ba 8B7F      		andi r24,lo8(-5)
 688 02bc 00C0      		rjmp .L69
 689               	.L66:
 282:../../../nano-RK/src/platform/micaZ/source/ulib.c **** else SFIOR |= BM(PUD);
 691               	.LM47:
 692 02be 80B5      		in r24,64-0x20
 693 02c0 8460      		ori r24,lo8(4)
 694               	.L69:
 695 02c2 80BD      		out 64-0x20,r24
 283:../../../nano-RK/src/platform/micaZ/source/ulib.c **** return NRK_OK;
 284:../../../nano-RK/src/platform/micaZ/source/ulib.c **** }
 697               	.LM48:
 698 02c4 81E0      		ldi r24,lo8(1)
 699               	/* epilogue start */
 700 02c6 0895      		ret
 702               	.Lscope8:
 704               		.stabd	78,0,0
 707               	.global	nrk_gpio_toggle
 709               	nrk_gpio_toggle:
 710               		.stabd	46,0,0
 285:../../../nano-RK/src/platform/micaZ/source/ulib.c **** 
 286:../../../nano-RK/src/platform/micaZ/source/ulib.c **** int8_t nrk_gpio_toggle(uint8_t pin)
 287:../../../nano-RK/src/platform/micaZ/source/ulib.c **** {
 712               	.LM49:
 713               	.LFBB9:
 714               	/* prologue: function */
 715               	/* frame size = 0 */
 288:../../../nano-RK/src/platform/micaZ/source/ulib.c ****     if (pin == NRK_INVALID_PIN_VAL) return -1;
 717               	.LM50:
 718 02c8 8F3F      		cpi r24,lo8(-1)
 719 02ca 01F4      		brne .+2
 720 02cc 00C0      		rjmp .L71
 289:../../../nano-RK/src/platform/micaZ/source/ulib.c ****         switch (pin & 0x07) {
 722               	.LM51:
 723 02ce 282F      		mov r18,r24
 724 02d0 30E0      		ldi r19,lo8(0)
 725 02d2 2770      		andi r18,lo8(7)
 726 02d4 3070      		andi r19,hi8(7)
 727 02d6 2230      		cpi r18,2
 728 02d8 3105      		cpc r19,__zero_reg__
 729 02da 01F4      		brne .+2
 730 02dc 00C0      		rjmp .L74
 731 02de 2330      		cpi r18,3
 732 02e0 3105      		cpc r19,__zero_reg__
 733 02e2 04F4      		brge .L78
 734 02e4 2115      		cp r18,__zero_reg__
 735 02e6 3105      		cpc r19,__zero_reg__
 736 02e8 01F0      		breq .L72
 737 02ea 2130      		cpi r18,1
 738 02ec 3105      		cpc r19,__zero_reg__
 739 02ee 01F0      		breq .+2
 740 02f0 00C0      		rjmp .L71
 741 02f2 00C0      		rjmp .L95
 742               	.L78:
 743 02f4 2430      		cpi r18,4
 744 02f6 3105      		cpc r19,__zero_reg__
 745 02f8 01F4      		brne .+2
 746 02fa 00C0      		rjmp .L76
 747 02fc 2430      		cpi r18,4
 748 02fe 3105      		cpc r19,__zero_reg__
 749 0300 04F4      		brge .+2
 750 0302 00C0      		rjmp .L75
 751 0304 2530      		cpi r18,5
 752 0306 3105      		cpc r19,__zero_reg__
 753 0308 01F0      		breq .+2
 754 030a 00C0      		rjmp .L71
 755 030c 00C0      		rjmp .L96
 756               	.L72:
 290:../../../nano-RK/src/platform/micaZ/source/ulib.c ****                 case NRK_PORTA:
 291:../../../nano-RK/src/platform/micaZ/source/ulib.c ****                         if ((PINA & BM((pin & 0xF8) >> 3)) == 0) {
 758               	.LM52:
 759 030e 99B3      		in r25,57-0x20
 760 0310 8695      		lsr r24
 761 0312 8695      		lsr r24
 762 0314 8695      		lsr r24
 763 0316 282F      		mov r18,r24
 764 0318 892F      		mov r24,r25
 765 031a 90E0      		ldi r25,lo8(0)
 766 031c 022E      		mov r0,r18
 767 031e 00C0      		rjmp 2f
 768 0320 9595      	1:	asr r25
 769 0322 8795      		ror r24
 770 0324 0A94      	2:	dec r0
 771 0326 02F4      		brpl 1b
 772 0328 80FD      		sbrc r24,0
 773 032a 00C0      		rjmp .L79
 292:../../../nano-RK/src/platform/micaZ/source/ulib.c ****                                 do { PORTA |= BM((pin & 0xF8) >> 3); } while(0);
 775               	.LM53:
 776 032c 8BB3      		in r24,59-0x20
 777 032e 41E0      		ldi r20,lo8(1)
 778 0330 50E0      		ldi r21,hi8(1)
 779 0332 00C0      		rjmp 2f
 780 0334 440F      	1:	lsl r20
 781 0336 551F      		rol r21
 782 0338 2A95      	2:	dec r18
 783 033a 02F4      		brpl 1b
 784 033c 842B      		or r24,r20
 785 033e 00C0      		rjmp .L92
 786               	.L79:
 293:../../../nano-RK/src/platform/micaZ/source/ulib.c ****                         } else {
 294:../../../nano-RK/src/platform/micaZ/source/ulib.c ****                                 do { PORTA &= ~BM((pin & 0xF8) >> 3); } while(0);
 788               	.LM54:
 789 0340 3BB3      		in r19,59-0x20
 790 0342 81E0      		ldi r24,lo8(1)
 791 0344 90E0      		ldi r25,hi8(1)
 792 0346 00C0      		rjmp 2f
 793 0348 880F      	1:	lsl r24
 794 034a 991F      		rol r25
 795 034c 2A95      	2:	dec r18
 796 034e 02F4      		brpl 1b
 797 0350 8095      		com r24
 798 0352 8323      		and r24,r19
 799               	.L92:
 800 0354 8BBB      		out 59-0x20,r24
 801 0356 00C0      		rjmp .L87
 802               	.L95:
 295:../../../nano-RK/src/platform/micaZ/source/ulib.c ****                         }
 296:../../../nano-RK/src/platform/micaZ/source/ulib.c ****                         break;
 297:../../../nano-RK/src/platform/micaZ/source/ulib.c ****                 case NRK_PORTB:
 298:../../../nano-RK/src/platform/micaZ/source/ulib.c ****                         if ((PINB & BM((pin & 0xF8) >> 3)) == 0) {
 804               	.LM55:
 805 0358 46B3      		in r20,54-0x20
 806 035a 8695      		lsr r24
 807 035c 8695      		lsr r24
 808 035e 8695      		lsr r24
 809 0360 50E0      		ldi r21,lo8(0)
 810 0362 082E      		mov r0,r24
 811 0364 00C0      		rjmp 2f
 812 0366 5595      	1:	asr r21
 813 0368 4795      		ror r20
 814 036a 0A94      	2:	dec r0
 815 036c 02F4      		brpl 1b
 816 036e 00C0      		rjmp 2f
 817 0370 220F      	1:	lsl r18
 818 0372 331F      		rol r19
 819 0374 8A95      	2:	dec r24
 820 0376 02F4      		brpl 1b
 821 0378 40FD      		sbrc r20,0
 822 037a 00C0      		rjmp .L81
 299:../../../nano-RK/src/platform/micaZ/source/ulib.c ****                                 do { PORTB |= BM((pin & 0xF8) >> 3); } while(0);
 824               	.LM56:
 825 037c 98B3      		in r25,56-0x20
 826 037e 922B      		or r25,r18
 827 0380 98BB      		out 56-0x20,r25
 828 0382 00C0      		rjmp .L87
 829               	.L81:
 300:../../../nano-RK/src/platform/micaZ/source/ulib.c ****                         } else {
 301:../../../nano-RK/src/platform/micaZ/source/ulib.c ****                                 do { PORTB &= ~BM((pin & 0xF8) >> 3); } while(0);
 831               	.LM57:
 832 0384 88B3      		in r24,56-0x20
 833 0386 2095      		com r18
 834 0388 2823      		and r18,r24
 835 038a 28BB      		out 56-0x20,r18
 836 038c 00C0      		rjmp .L87
 837               	.L74:
 302:../../../nano-RK/src/platform/micaZ/source/ulib.c ****                         }
 303:../../../nano-RK/src/platform/micaZ/source/ulib.c ****                         break;
 304:../../../nano-RK/src/platform/micaZ/source/ulib.c ****                 case NRK_PORTC:
 305:../../../nano-RK/src/platform/micaZ/source/ulib.c ****                         if ((PINC & BM((pin & 0xF8) >> 3)) == 0) {
 839               	.LM58:
 840 038e 93B3      		in r25,51-0x20
 841 0390 8695      		lsr r24
 842 0392 8695      		lsr r24
 843 0394 8695      		lsr r24
 844 0396 282F      		mov r18,r24
 845 0398 892F      		mov r24,r25
 846 039a 90E0      		ldi r25,lo8(0)
 847 039c 022E      		mov r0,r18
 848 039e 00C0      		rjmp 2f
 849 03a0 9595      	1:	asr r25
 850 03a2 8795      		ror r24
 851 03a4 0A94      	2:	dec r0
 852 03a6 02F4      		brpl 1b
 853 03a8 80FD      		sbrc r24,0
 854 03aa 00C0      		rjmp .L82
 306:../../../nano-RK/src/platform/micaZ/source/ulib.c ****                                 do { PORTC |= BM((pin & 0xF8) >> 3); } while(0);
 856               	.LM59:
 857 03ac 85B3      		in r24,53-0x20
 858 03ae 41E0      		ldi r20,lo8(1)
 859 03b0 50E0      		ldi r21,hi8(1)
 860 03b2 00C0      		rjmp 2f
 861 03b4 440F      	1:	lsl r20
 862 03b6 551F      		rol r21
 863 03b8 2A95      	2:	dec r18
 864 03ba 02F4      		brpl 1b
 865 03bc 842B      		or r24,r20
 866 03be 00C0      		rjmp .L88
 867               	.L82:
 307:../../../nano-RK/src/platform/micaZ/source/ulib.c ****                         } else {
 308:../../../nano-RK/src/platform/micaZ/source/ulib.c ****                                 do { PORTC &= ~BM((pin & 0xF8) >> 3); } while(0);
 869               	.LM60:
 870 03c0 35B3      		in r19,53-0x20
 871 03c2 81E0      		ldi r24,lo8(1)
 872 03c4 90E0      		ldi r25,hi8(1)
 873 03c6 00C0      		rjmp 2f
 874 03c8 880F      	1:	lsl r24
 875 03ca 991F      		rol r25
 876 03cc 2A95      	2:	dec r18
 877 03ce 02F4      		brpl 1b
 878 03d0 8095      		com r24
 879 03d2 8323      		and r24,r19
 880               	.L88:
 881 03d4 85BB      		out 53-0x20,r24
 882 03d6 00C0      		rjmp .L87
 883               	.L75:
 309:../../../nano-RK/src/platform/micaZ/source/ulib.c ****                         }
 310:../../../nano-RK/src/platform/micaZ/source/ulib.c ****                         break;
 311:../../../nano-RK/src/platform/micaZ/source/ulib.c ****                 case NRK_PORTD:
 312:../../../nano-RK/src/platform/micaZ/source/ulib.c ****                         if ((PIND & BM((pin & 0xF8) >> 3)) == 0) {
 885               	.LM61:
 886 03d8 90B3      		in r25,48-0x20
 887 03da 8695      		lsr r24
 888 03dc 8695      		lsr r24
 889 03de 8695      		lsr r24
 890 03e0 282F      		mov r18,r24
 891 03e2 892F      		mov r24,r25
 892 03e4 90E0      		ldi r25,lo8(0)
 893 03e6 022E      		mov r0,r18
 894 03e8 00C0      		rjmp 2f
 895 03ea 9595      	1:	asr r25
 896 03ec 8795      		ror r24
 897 03ee 0A94      	2:	dec r0
 898 03f0 02F4      		brpl 1b
 899 03f2 80FD      		sbrc r24,0
 900 03f4 00C0      		rjmp .L83
 313:../../../nano-RK/src/platform/micaZ/source/ulib.c ****                                 do { PORTD |= BM((pin & 0xF8) >> 3); } while(0);
 902               	.LM62:
 903 03f6 82B3      		in r24,50-0x20
 904 03f8 41E0      		ldi r20,lo8(1)
 905 03fa 50E0      		ldi r21,hi8(1)
 906 03fc 00C0      		rjmp 2f
 907 03fe 440F      	1:	lsl r20
 908 0400 551F      		rol r21
 909 0402 2A95      	2:	dec r18
 910 0404 02F4      		brpl 1b
 911 0406 842B      		or r24,r20
 912 0408 00C0      		rjmp .L89
 913               	.L83:
 314:../../../nano-RK/src/platform/micaZ/source/ulib.c ****                         } else {
 315:../../../nano-RK/src/platform/micaZ/source/ulib.c ****                                 do { PORTD &= ~BM((pin & 0xF8) >> 3); } while(0);
 915               	.LM63:
 916 040a 32B3      		in r19,50-0x20
 917 040c 81E0      		ldi r24,lo8(1)
 918 040e 90E0      		ldi r25,hi8(1)
 919 0410 00C0      		rjmp 2f
 920 0412 880F      	1:	lsl r24
 921 0414 991F      		rol r25
 922 0416 2A95      	2:	dec r18
 923 0418 02F4      		brpl 1b
 924 041a 8095      		com r24
 925 041c 8323      		and r24,r19
 926               	.L89:
 927 041e 82BB      		out 50-0x20,r24
 928 0420 00C0      		rjmp .L87
 929               	.L76:
 316:../../../nano-RK/src/platform/micaZ/source/ulib.c ****                         }
 317:../../../nano-RK/src/platform/micaZ/source/ulib.c ****                         break;
 318:../../../nano-RK/src/platform/micaZ/source/ulib.c ****                 case NRK_PORTE:
 319:../../../nano-RK/src/platform/micaZ/source/ulib.c ****                         if ((PINE & BM((pin & 0xF8) >> 3)) == 0) {
 931               	.LM64:
 932 0422 91B1      		in r25,33-0x20
 933 0424 8695      		lsr r24
 934 0426 8695      		lsr r24
 935 0428 8695      		lsr r24
 936 042a 282F      		mov r18,r24
 937 042c 892F      		mov r24,r25
 938 042e 90E0      		ldi r25,lo8(0)
 939 0430 022E      		mov r0,r18
 940 0432 00C0      		rjmp 2f
 941 0434 9595      	1:	asr r25
 942 0436 8795      		ror r24
 943 0438 0A94      	2:	dec r0
 944 043a 02F4      		brpl 1b
 945 043c 80FD      		sbrc r24,0
 946 043e 00C0      		rjmp .L84
 320:../../../nano-RK/src/platform/micaZ/source/ulib.c ****                                 do { PORTE |= BM((pin & 0xF8) >> 3); } while(0);
 948               	.LM65:
 949 0440 83B1      		in r24,35-0x20
 950 0442 41E0      		ldi r20,lo8(1)
 951 0444 50E0      		ldi r21,hi8(1)
 952 0446 00C0      		rjmp 2f
 953 0448 440F      	1:	lsl r20
 954 044a 551F      		rol r21
 955 044c 2A95      	2:	dec r18
 956 044e 02F4      		brpl 1b
 957 0450 842B      		or r24,r20
 958 0452 00C0      		rjmp .L90
 959               	.L84:
 321:../../../nano-RK/src/platform/micaZ/source/ulib.c ****                         } else {
 322:../../../nano-RK/src/platform/micaZ/source/ulib.c ****                                 do { PORTE &= ~BM((pin & 0xF8) >> 3); } while(0);
 961               	.LM66:
 962 0454 33B1      		in r19,35-0x20
 963 0456 81E0      		ldi r24,lo8(1)
 964 0458 90E0      		ldi r25,hi8(1)
 965 045a 00C0      		rjmp 2f
 966 045c 880F      	1:	lsl r24
 967 045e 991F      		rol r25
 968 0460 2A95      	2:	dec r18
 969 0462 02F4      		brpl 1b
 970 0464 8095      		com r24
 971 0466 8323      		and r24,r19
 972               	.L90:
 973 0468 83B9      		out 35-0x20,r24
 974 046a 00C0      		rjmp .L87
 975               	.L96:
 323:../../../nano-RK/src/platform/micaZ/source/ulib.c ****                         }
 324:../../../nano-RK/src/platform/micaZ/source/ulib.c ****                         break;
 325:../../../nano-RK/src/platform/micaZ/source/ulib.c ****                 case NRK_PORTF:
 326:../../../nano-RK/src/platform/micaZ/source/ulib.c ****                         if ((PINF & BM((pin & 0xF8) >> 3)) == 0) {
 977               	.LM67:
 978 046c 90B1      		in r25,32-0x20
 979 046e 8695      		lsr r24
 980 0470 8695      		lsr r24
 981 0472 8695      		lsr r24
 982 0474 282F      		mov r18,r24
 983 0476 892F      		mov r24,r25
 984 0478 90E0      		ldi r25,lo8(0)
 985 047a 022E      		mov r0,r18
 986 047c 00C0      		rjmp 2f
 987 047e 9595      	1:	asr r25
 988 0480 8795      		ror r24
 989 0482 0A94      	2:	dec r0
 990 0484 02F4      		brpl 1b
 991 0486 80FD      		sbrc r24,0
 992 0488 00C0      		rjmp .L85
 327:../../../nano-RK/src/platform/micaZ/source/ulib.c ****                                 do { PORTF |= BM((pin & 0xF8) >> 3); } while(0);
 994               	.LM68:
 995 048a 8091 6200 		lds r24,98
 996 048e 41E0      		ldi r20,lo8(1)
 997 0490 50E0      		ldi r21,hi8(1)
 998 0492 00C0      		rjmp 2f
 999 0494 440F      	1:	lsl r20
 1000 0496 551F      		rol r21
 1001 0498 2A95      	2:	dec r18
 1002 049a 02F4      		brpl 1b
 1003 049c 842B      		or r24,r20
 1004 049e 00C0      		rjmp .L91
 1005               	.L85:
 328:../../../nano-RK/src/platform/micaZ/source/ulib.c ****                         } else {
 329:../../../nano-RK/src/platform/micaZ/source/ulib.c ****                                 do { PORTF &= ~BM((pin & 0xF8) >> 3); } while(0);
 1007               	.LM69:
 1008 04a0 3091 6200 		lds r19,98
 1009 04a4 81E0      		ldi r24,lo8(1)
 1010 04a6 90E0      		ldi r25,hi8(1)
 1011 04a8 00C0      		rjmp 2f
 1012 04aa 880F      	1:	lsl r24
 1013 04ac 991F      		rol r25
 1014 04ae 2A95      	2:	dec r18
 1015 04b0 02F4      		brpl 1b
 1016 04b2 8095      		com r24
 1017 04b4 8323      		and r24,r19
 1018               	.L91:
 1019 04b6 8093 6200 		sts 98,r24
 1020               	.L87:
 1021 04ba 81E0      		ldi r24,lo8(1)
 1022 04bc 0895      		ret
 1023               	.L71:
 1024 04be 8FEF      		ldi r24,lo8(-1)
 330:../../../nano-RK/src/platform/micaZ/source/ulib.c ****                         }
 331:../../../nano-RK/src/platform/micaZ/source/ulib.c ****                         break;
 332:../../../nano-RK/src/platform/micaZ/source/ulib.c ****                 default: return -1;
 333:../../../nano-RK/src/platform/micaZ/source/ulib.c ****         }
 334:../../../nano-RK/src/platform/micaZ/source/ulib.c ****         return 1;
 335:../../../nano-RK/src/platform/micaZ/source/ulib.c **** }
 1026               	.LM70:
 1027 04c0 0895      		ret
 1029               	.Lscope9:
 1031               		.stabd	78,0,0
 1035               	.global	nrk_gpio_direction
 1037               	nrk_gpio_direction:
 1038               		.stabd	46,0,0
 336:../../../nano-RK/src/platform/micaZ/source/ulib.c **** 
 337:../../../nano-RK/src/platform/micaZ/source/ulib.c **** int8_t nrk_gpio_direction(uint8_t pin, uint8_t pin_direction)
 338:../../../nano-RK/src/platform/micaZ/source/ulib.c **** {
 1040               	.LM71:
 1041               	.LFBB10:
 1042               	/* prologue: function */
 1043               	/* frame size = 0 */
 339:../../../nano-RK/src/platform/micaZ/source/ulib.c ****         if (pin == NRK_INVALID_PIN_VAL) return -1;
 1045               	.LM72:
 1046 04c2 8F3F      		cpi r24,lo8(-1)
 1047 04c4 01F4      		brne .+2
 1048 04c6 00C0      		rjmp .L98
 1049 04c8 282F      		mov r18,r24
 1050 04ca 30E0      		ldi r19,lo8(0)
 340:../../../nano-RK/src/platform/micaZ/source/ulib.c ****         if (pin_direction == NRK_PIN_INPUT) {
 1052               	.LM73:
 1053 04cc 6623      		tst r22
 1054 04ce 01F0      		breq .+2
 1055 04d0 00C0      		rjmp .L99
 341:../../../nano-RK/src/platform/micaZ/source/ulib.c ****                 switch (pin & 0x07) {
 1057               	.LM74:
 1058 04d2 2770      		andi r18,lo8(7)
 1059 04d4 3070      		andi r19,hi8(7)
 1060 04d6 2230      		cpi r18,2
 1061 04d8 3105      		cpc r19,__zero_reg__
 1062 04da 01F0      		breq .L102
 1063 04dc 2330      		cpi r18,3
 1064 04de 3105      		cpc r19,__zero_reg__
 1065 04e0 04F4      		brge .L106
 1066 04e2 2115      		cp r18,__zero_reg__
 1067 04e4 3105      		cpc r19,__zero_reg__
 1068 04e6 01F0      		breq .L100
 1069 04e8 2130      		cpi r18,1
 1070 04ea 3105      		cpc r19,__zero_reg__
 1071 04ec 01F0      		breq .+2
 1072 04ee 00C0      		rjmp .L98
 1073 04f0 00C0      		rjmp .L121
 1074               	.L106:
 1075 04f2 2430      		cpi r18,4
 1076 04f4 3105      		cpc r19,__zero_reg__
 1077 04f6 01F4      		brne .+2
 1078 04f8 00C0      		rjmp .L104
 1079 04fa 2430      		cpi r18,4
 1080 04fc 3105      		cpc r19,__zero_reg__
 1081 04fe 04F4      		brge .+2
 1082 0500 00C0      		rjmp .L103
 1083 0502 2530      		cpi r18,5
 1084 0504 3105      		cpc r19,__zero_reg__
 1085 0506 01F0      		breq .+2
 1086 0508 00C0      		rjmp .L98
 1087 050a 00C0      		rjmp .L122
 1088               	.L100:
 342:../../../nano-RK/src/platform/micaZ/source/ulib.c ****                         case NRK_PORTA:
 343:../../../nano-RK/src/platform/micaZ/source/ulib.c ****                                 DDRA &= ~BM((pin & 0xF8) >> 3); 
 1090               	.LM75:
 1091 050c 9AB3      		in r25,58-0x20
 1092 050e 8695      		lsr r24
 1093 0510 8695      		lsr r24
 1094 0512 8695      		lsr r24
 1095 0514 21E0      		ldi r18,lo8(1)
 1096 0516 30E0      		ldi r19,hi8(1)
 1097 0518 00C0      		rjmp 2f
 1098 051a 220F      	1:	lsl r18
 1099 051c 331F      		rol r19
 1100 051e 8A95      	2:	dec r24
 1101 0520 02F4      		brpl 1b
 1102 0522 822F      		mov r24,r18
 1103 0524 8095      		com r24
 1104 0526 8923      		and r24,r25
 1105 0528 8ABB      		out 58-0x20,r24
 344:../../../nano-RK/src/platform/micaZ/source/ulib.c ****                                 PORTA |= BM((pin & 0xF8) >> 3); 
 1107               	.LM76:
 1108 052a 8BB3      		in r24,59-0x20
 1109 052c 822B      		or r24,r18
 1110 052e 8BBB      		out 59-0x20,r24
 1111 0530 00C0      		rjmp .L116
 1112               	.L121:
 345:../../../nano-RK/src/platform/micaZ/source/ulib.c ****                                 break;
 346:../../../nano-RK/src/platform/micaZ/source/ulib.c ****                         case NRK_PORTB:
 347:../../../nano-RK/src/platform/micaZ/source/ulib.c ****                                 DDRB &= ~BM((pin & 0xF8) >> 3); 
 1114               	.LM77:
 1115 0532 47B3      		in r20,55-0x20
 1116 0534 8695      		lsr r24
 1117 0536 8695      		lsr r24
 1118 0538 8695      		lsr r24
 1119 053a 00C0      		rjmp 2f
 1120 053c 220F      	1:	lsl r18
 1121 053e 331F      		rol r19
 1122 0540 8A95      	2:	dec r24
 1123 0542 02F4      		brpl 1b
 1124 0544 922F      		mov r25,r18
 1125 0546 9095      		com r25
 1126 0548 9423      		and r25,r20
 1127 054a 97BB      		out 55-0x20,r25
 348:../../../nano-RK/src/platform/micaZ/source/ulib.c ****                                 PORTB |= BM((pin & 0xF8) >> 3); 
 1129               	.LM78:
 1130 054c 98B3      		in r25,56-0x20
 1131 054e 922B      		or r25,r18
 1132 0550 98BB      		out 56-0x20,r25
 1133 0552 00C0      		rjmp .L116
 1134               	.L102:
 349:../../../nano-RK/src/platform/micaZ/source/ulib.c ****                                 break;
 350:../../../nano-RK/src/platform/micaZ/source/ulib.c ****                         case NRK_PORTC:
 351:../../../nano-RK/src/platform/micaZ/source/ulib.c ****                                 DDRC &= ~BM((pin & 0xF8) >> 3); 
 1136               	.LM79:
 1137 0554 94B3      		in r25,52-0x20
 1138 0556 8695      		lsr r24
 1139 0558 8695      		lsr r24
 1140 055a 8695      		lsr r24
 1141 055c 21E0      		ldi r18,lo8(1)
 1142 055e 30E0      		ldi r19,hi8(1)
 1143 0560 00C0      		rjmp 2f
 1144 0562 220F      	1:	lsl r18
 1145 0564 331F      		rol r19
 1146 0566 8A95      	2:	dec r24
 1147 0568 02F4      		brpl 1b
 1148 056a 822F      		mov r24,r18
 1149 056c 8095      		com r24
 1150 056e 8923      		and r24,r25
 1151 0570 84BB      		out 52-0x20,r24
 352:../../../nano-RK/src/platform/micaZ/source/ulib.c ****                                 PORTC |= BM((pin & 0xF8) >> 3); 
 1153               	.LM80:
 1154 0572 85B3      		in r24,53-0x20
 1155 0574 822B      		or r24,r18
 1156 0576 85BB      		out 53-0x20,r24
 1157 0578 00C0      		rjmp .L116
 1158               	.L103:
 353:../../../nano-RK/src/platform/micaZ/source/ulib.c ****                                 break;
 354:../../../nano-RK/src/platform/micaZ/source/ulib.c ****                         case NRK_PORTD:
 355:../../../nano-RK/src/platform/micaZ/source/ulib.c ****                                 DDRD &= ~BM((pin & 0xF8) >> 3); 
 1160               	.LM81:
 1161 057a 91B3      		in r25,49-0x20
 1162 057c 8695      		lsr r24
 1163 057e 8695      		lsr r24
 1164 0580 8695      		lsr r24
 1165 0582 21E0      		ldi r18,lo8(1)
 1166 0584 30E0      		ldi r19,hi8(1)
 1167 0586 00C0      		rjmp 2f
 1168 0588 220F      	1:	lsl r18
 1169 058a 331F      		rol r19
 1170 058c 8A95      	2:	dec r24
 1171 058e 02F4      		brpl 1b
 1172 0590 822F      		mov r24,r18
 1173 0592 8095      		com r24
 1174 0594 8923      		and r24,r25
 1175 0596 81BB      		out 49-0x20,r24
 356:../../../nano-RK/src/platform/micaZ/source/ulib.c ****                                 PORTD |= BM((pin & 0xF8) >> 3); 
 1177               	.LM82:
 1178 0598 82B3      		in r24,50-0x20
 1179 059a 822B      		or r24,r18
 1180 059c 82BB      		out 50-0x20,r24
 1181 059e 00C0      		rjmp .L116
 1182               	.L104:
 357:../../../nano-RK/src/platform/micaZ/source/ulib.c ****                                 break;
 358:../../../nano-RK/src/platform/micaZ/source/ulib.c ****                         case NRK_PORTE:
 359:../../../nano-RK/src/platform/micaZ/source/ulib.c ****                                 DDRE &= ~BM((pin & 0xF8) >> 3); 
 1184               	.LM83:
 1185 05a0 92B1      		in r25,34-0x20
 1186 05a2 8695      		lsr r24
 1187 05a4 8695      		lsr r24
 1188 05a6 8695      		lsr r24
 1189 05a8 21E0      		ldi r18,lo8(1)
 1190 05aa 30E0      		ldi r19,hi8(1)
 1191 05ac 00C0      		rjmp 2f
 1192 05ae 220F      	1:	lsl r18
 1193 05b0 331F      		rol r19
 1194 05b2 8A95      	2:	dec r24
 1195 05b4 02F4      		brpl 1b
 1196 05b6 822F      		mov r24,r18
 1197 05b8 8095      		com r24
 1198 05ba 8923      		and r24,r25
 1199 05bc 82B9      		out 34-0x20,r24
 360:../../../nano-RK/src/platform/micaZ/source/ulib.c ****                                 PORTE |= BM((pin & 0xF8) >> 3); 
 1201               	.LM84:
 1202 05be 83B1      		in r24,35-0x20
 1203 05c0 822B      		or r24,r18
 1204 05c2 83B9      		out 35-0x20,r24
 1205 05c4 00C0      		rjmp .L116
 1206               	.L122:
 361:../../../nano-RK/src/platform/micaZ/source/ulib.c ****                                 break;
 362:../../../nano-RK/src/platform/micaZ/source/ulib.c ****                         case NRK_PORTF:
 363:../../../nano-RK/src/platform/micaZ/source/ulib.c ****                                 DDRF &= ~BM((pin & 0xF8) >> 3);
 1208               	.LM85:
 1209 05c6 9091 6100 		lds r25,97
 1210 05ca 8695      		lsr r24
 1211 05cc 8695      		lsr r24
 1212 05ce 8695      		lsr r24
 1213 05d0 21E0      		ldi r18,lo8(1)
 1214 05d2 30E0      		ldi r19,hi8(1)
 1215 05d4 00C0      		rjmp 2f
 1216 05d6 220F      	1:	lsl r18
 1217 05d8 331F      		rol r19
 1218 05da 8A95      	2:	dec r24
 1219 05dc 02F4      		brpl 1b
 1220 05de 822F      		mov r24,r18
 1221 05e0 8095      		com r24
 1222 05e2 8923      		and r24,r25
 1223 05e4 8093 6100 		sts 97,r24
 364:../../../nano-RK/src/platform/micaZ/source/ulib.c ****                                 PORTF |= BM((pin & 0xF8) >> 3); 
 1225               	.LM86:
 1226 05e8 8091 6200 		lds r24,98
 1227 05ec 822B      		or r24,r18
 1228 05ee 8093 6200 		sts 98,r24
 1229 05f2 00C0      		rjmp .L116
 1230               	.L99:
 365:../../../nano-RK/src/platform/micaZ/source/ulib.c ****                                 break;
 366:../../../nano-RK/src/platform/micaZ/source/ulib.c ****                         default: return -1;
 367:../../../nano-RK/src/platform/micaZ/source/ulib.c ****                 }
 368:../../../nano-RK/src/platform/micaZ/source/ulib.c ****         } else {
 369:../../../nano-RK/src/platform/micaZ/source/ulib.c ****                 switch (pin & 0x07) {
 1232               	.LM87:
 1233 05f4 2770      		andi r18,lo8(7)
 1234 05f6 3070      		andi r19,hi8(7)
 1235 05f8 2230      		cpi r18,2
 1236 05fa 3105      		cpc r19,__zero_reg__
 1237 05fc 01F0      		breq .L110
 1238 05fe 2330      		cpi r18,3
 1239 0600 3105      		cpc r19,__zero_reg__
 1240 0602 04F4      		brge .L114
 1241 0604 2115      		cp r18,__zero_reg__
 1242 0606 3105      		cpc r19,__zero_reg__
 1243 0608 01F0      		breq .L108
 1244 060a 2130      		cpi r18,1
 1245 060c 3105      		cpc r19,__zero_reg__
 1246 060e 01F0      		breq .+2
 1247 0610 00C0      		rjmp .L98
 1248 0612 00C0      		rjmp .L123
 1249               	.L114:
 1250 0614 2430      		cpi r18,4
 1251 0616 3105      		cpc r19,__zero_reg__
 1252 0618 01F4      		brne .+2
 1253 061a 00C0      		rjmp .L112
 1254 061c 2430      		cpi r18,4
 1255 061e 3105      		cpc r19,__zero_reg__
 1256 0620 04F0      		brlt .L111
 1257 0622 2530      		cpi r18,5
 1258 0624 3105      		cpc r19,__zero_reg__
 1259 0626 01F0      		breq .+2
 1260 0628 00C0      		rjmp .L98
 1261 062a 00C0      		rjmp .L124
 1262               	.L108:
 370:../../../nano-RK/src/platform/micaZ/source/ulib.c ****                         case NRK_PORTA:
 371:../../../nano-RK/src/platform/micaZ/source/ulib.c ****                                 DDRA |= BM((pin & 0xF8) >> 3); break;
 1264               	.LM88:
 1265 062c 9AB3      		in r25,58-0x20
 1266 062e 8695      		lsr r24
 1267 0630 8695      		lsr r24
 1268 0632 8695      		lsr r24
 1269 0634 21E0      		ldi r18,lo8(1)
 1270 0636 30E0      		ldi r19,hi8(1)
 1271 0638 00C0      		rjmp 2f
 1272 063a 220F      	1:	lsl r18
 1273 063c 331F      		rol r19
 1274 063e 8A95      	2:	dec r24
 1275 0640 02F4      		brpl 1b
 1276 0642 922B      		or r25,r18
 1277 0644 9ABB      		out 58-0x20,r25
 1278 0646 00C0      		rjmp .L116
 1279               	.L123:
 372:../../../nano-RK/src/platform/micaZ/source/ulib.c ****                         case NRK_PORTB:
 373:../../../nano-RK/src/platform/micaZ/source/ulib.c ****                                 DDRB |= BM((pin & 0xF8) >> 3); break;
 1281               	.LM89:
 1282 0648 97B3      		in r25,55-0x20
 1283 064a 8695      		lsr r24
 1284 064c 8695      		lsr r24
 1285 064e 8695      		lsr r24
 1286 0650 00C0      		rjmp 2f
 1287 0652 220F      	1:	lsl r18
 1288 0654 331F      		rol r19
 1289 0656 8A95      	2:	dec r24
 1290 0658 02F4      		brpl 1b
 1291 065a 922B      		or r25,r18
 1292 065c 97BB      		out 55-0x20,r25
 1293 065e 00C0      		rjmp .L116
 1294               	.L110:
 374:../../../nano-RK/src/platform/micaZ/source/ulib.c ****                         case NRK_PORTC:
 375:../../../nano-RK/src/platform/micaZ/source/ulib.c ****                                 DDRC |= BM((pin & 0xF8) >> 3); break;
 1296               	.LM90:
 1297 0660 94B3      		in r25,52-0x20
 1298 0662 8695      		lsr r24
 1299 0664 8695      		lsr r24
 1300 0666 8695      		lsr r24
 1301 0668 21E0      		ldi r18,lo8(1)
 1302 066a 30E0      		ldi r19,hi8(1)
 1303 066c 00C0      		rjmp 2f
 1304 066e 220F      	1:	lsl r18
 1305 0670 331F      		rol r19
 1306 0672 8A95      	2:	dec r24
 1307 0674 02F4      		brpl 1b
 1308 0676 922B      		or r25,r18
 1309 0678 94BB      		out 52-0x20,r25
 1310 067a 00C0      		rjmp .L116
 1311               	.L111:
 376:../../../nano-RK/src/platform/micaZ/source/ulib.c ****                         case NRK_PORTD:
 377:../../../nano-RK/src/platform/micaZ/source/ulib.c ****                                 DDRD |= BM((pin & 0xF8) >> 3); break;
 1313               	.LM91:
 1314 067c 91B3      		in r25,49-0x20
 1315 067e 8695      		lsr r24
 1316 0680 8695      		lsr r24
 1317 0682 8695      		lsr r24
 1318 0684 21E0      		ldi r18,lo8(1)
 1319 0686 30E0      		ldi r19,hi8(1)
 1320 0688 00C0      		rjmp 2f
 1321 068a 220F      	1:	lsl r18
 1322 068c 331F      		rol r19
 1323 068e 8A95      	2:	dec r24
 1324 0690 02F4      		brpl 1b
 1325 0692 922B      		or r25,r18
 1326 0694 91BB      		out 49-0x20,r25
 1327 0696 00C0      		rjmp .L116
 1328               	.L112:
 378:../../../nano-RK/src/platform/micaZ/source/ulib.c ****                         case NRK_PORTE:
 379:../../../nano-RK/src/platform/micaZ/source/ulib.c ****                                 DDRE |= BM((pin & 0xF8) >> 3); break;
 1330               	.LM92:
 1331 0698 92B1      		in r25,34-0x20
 1332 069a 8695      		lsr r24
 1333 069c 8695      		lsr r24
 1334 069e 8695      		lsr r24
 1335 06a0 21E0      		ldi r18,lo8(1)
 1336 06a2 30E0      		ldi r19,hi8(1)
 1337 06a4 00C0      		rjmp 2f
 1338 06a6 220F      	1:	lsl r18
 1339 06a8 331F      		rol r19
 1340 06aa 8A95      	2:	dec r24
 1341 06ac 02F4      		brpl 1b
 1342 06ae 922B      		or r25,r18
 1343 06b0 92B9      		out 34-0x20,r25
 1344 06b2 00C0      		rjmp .L116
 1345               	.L124:
 380:../../../nano-RK/src/platform/micaZ/source/ulib.c ****                         case NRK_PORTF:
 381:../../../nano-RK/src/platform/micaZ/source/ulib.c ****                                 DDRF |= BM((pin & 0xF8) >> 3); break;
 1347               	.LM93:
 1348 06b4 9091 6100 		lds r25,97
 1349 06b8 8695      		lsr r24
 1350 06ba 8695      		lsr r24
 1351 06bc 8695      		lsr r24
 1352 06be 21E0      		ldi r18,lo8(1)
 1353 06c0 30E0      		ldi r19,hi8(1)
 1354 06c2 00C0      		rjmp 2f
 1355 06c4 220F      	1:	lsl r18
 1356 06c6 331F      		rol r19
 1357 06c8 8A95      	2:	dec r24
 1358 06ca 02F4      		brpl 1b
 1359 06cc 922B      		or r25,r18
 1360 06ce 9093 6100 		sts 97,r25
 1361               	.L116:
 1362 06d2 81E0      		ldi r24,lo8(1)
 1363 06d4 0895      		ret
 1364               	.L98:
 1365 06d6 8FEF      		ldi r24,lo8(-1)
 382:../../../nano-RK/src/platform/micaZ/source/ulib.c ****                         default: return -1;
 383:../../../nano-RK/src/platform/micaZ/source/ulib.c ****                 }
 384:../../../nano-RK/src/platform/micaZ/source/ulib.c ****         }
 385:../../../nano-RK/src/platform/micaZ/source/ulib.c ****         return 1;
 386:../../../nano-RK/src/platform/micaZ/source/ulib.c **** }
 1367               	.LM94:
 1368 06d8 0895      		ret
 1370               	.Lscope10:
 1372               		.stabd	78,0,0
 1375               	.global	nrk_get_button
 1377               	nrk_get_button:
 1378               		.stabd	46,0,0
 387:../../../nano-RK/src/platform/micaZ/source/ulib.c **** 
 388:../../../nano-RK/src/platform/micaZ/source/ulib.c **** 
 389:../../../nano-RK/src/platform/micaZ/source/ulib.c **** int8_t nrk_get_button(uint8_t b)
 390:../../../nano-RK/src/platform/micaZ/source/ulib.c **** {
 1380               	.LM95:
 1381               	.LFBB11:
 1382               	/* prologue: function */
 1383               	/* frame size = 0 */
 391:../../../nano-RK/src/platform/micaZ/source/ulib.c **** return NRK_ERROR;
 392:../../../nano-RK/src/platform/micaZ/source/ulib.c **** }
 1385               	.LM96:
 1386 06da 8FEF      		ldi r24,lo8(-1)
 1387               	/* epilogue start */
 1388 06dc 0895      		ret
 1390               	.Lscope11:
 1392               		.stabd	78,0,0
 1395               	.global	nrk_led_toggle
 1397               	nrk_led_toggle:
 1398               		.stabd	46,0,0
 393:../../../nano-RK/src/platform/micaZ/source/ulib.c **** 
 394:../../../nano-RK/src/platform/micaZ/source/ulib.c **** 
 395:../../../nano-RK/src/platform/micaZ/source/ulib.c **** 
 396:../../../nano-RK/src/platform/micaZ/source/ulib.c **** int8_t nrk_led_toggle( int led )
 397:../../../nano-RK/src/platform/micaZ/source/ulib.c **** {
 1400               	.LM97:
 1401               	.LFBB12:
 1402               	/* prologue: function */
 1403               	/* frame size = 0 */
 398:../../../nano-RK/src/platform/micaZ/source/ulib.c **** if(led==0) { nrk_gpio_toggle(NRK_LED_0); return 1; }
 1405               	.LM98:
 1406 06de 0097      		sbiw r24,0
 1407 06e0 01F4      		brne .L128
 1408 06e2 80E0      		ldi r24,lo8(0)
 1409 06e4 00C0      		rjmp .L133
 1410               	.L128:
 399:../../../nano-RK/src/platform/micaZ/source/ulib.c **** if(led==1) { nrk_gpio_toggle(NRK_LED_1); return 1; }
 1412               	.LM99:
 1413 06e6 8130      		cpi r24,1
 1414 06e8 9105      		cpc r25,__zero_reg__
 1415 06ea 01F4      		brne .L130
 1416 06ec 88E0      		ldi r24,lo8(8)
 1417               	.L133:
 1418 06ee 0E94 0000 		call nrk_gpio_toggle
 1419 06f2 81E0      		ldi r24,lo8(1)
 1420 06f4 0895      		ret
 1421               	.L130:
 400:../../../nano-RK/src/platform/micaZ/source/ulib.c **** if(led==2) { nrk_gpio_toggle(NRK_LED_2); return 1; }
 1423               	.LM100:
 1424 06f6 8230      		cpi r24,2
 1425 06f8 9105      		cpc r25,__zero_reg__
 1426 06fa 01F0      		breq .L131
 1427 06fc 8FEF      		ldi r24,lo8(-1)
 1428 06fe 0895      		ret
 1429               	.L131:
 1430 0700 80E1      		ldi r24,lo8(16)
 1431 0702 0E94 0000 		call nrk_gpio_toggle
 1432 0706 81E0      		ldi r24,lo8(1)
 401:../../../nano-RK/src/platform/micaZ/source/ulib.c **** return -1;
 402:../../../nano-RK/src/platform/micaZ/source/ulib.c **** }
 1434               	.LM101:
 1435 0708 0895      		ret
 1437               	.Lscope12:
 1439               		.stabd	78,0,0
 1442               	.global	nrk_led_clr
 1444               	nrk_led_clr:
 1445               		.stabd	46,0,0
 403:../../../nano-RK/src/platform/micaZ/source/ulib.c **** 
 404:../../../nano-RK/src/platform/micaZ/source/ulib.c **** int8_t nrk_led_clr( int led )
 405:../../../nano-RK/src/platform/micaZ/source/ulib.c **** {
 1447               	.LM102:
 1448               	.LFBB13:
 1449               	/* prologue: function */
 1450               	/* frame size = 0 */
 406:../../../nano-RK/src/platform/micaZ/source/ulib.c **** if(led==0) { nrk_gpio_set(NRK_LED_0); return 1; }
 1452               	.LM103:
 1453 070a 0097      		sbiw r24,0
 1454 070c 01F4      		brne .L135
 1455 070e 80E0      		ldi r24,lo8(0)
 1456 0710 00C0      		rjmp .L140
 1457               	.L135:
 407:../../../nano-RK/src/platform/micaZ/source/ulib.c **** if(led==1) { nrk_gpio_set(NRK_LED_1); return 1; }
 1459               	.LM104:
 1460 0712 8130      		cpi r24,1
 1461 0714 9105      		cpc r25,__zero_reg__
 1462 0716 01F4      		brne .L137
 1463 0718 88E0      		ldi r24,lo8(8)
 1464               	.L140:
 1465 071a 0E94 0000 		call nrk_gpio_set
 1466 071e 81E0      		ldi r24,lo8(1)
 1467 0720 0895      		ret
 1468               	.L137:
 408:../../../nano-RK/src/platform/micaZ/source/ulib.c **** if(led==2) { nrk_gpio_set(NRK_LED_2); return 1; }
 1470               	.LM105:
 1471 0722 8230      		cpi r24,2
 1472 0724 9105      		cpc r25,__zero_reg__
 1473 0726 01F0      		breq .L138
 1474 0728 8FEF      		ldi r24,lo8(-1)
 1475 072a 0895      		ret
 1476               	.L138:
 1477 072c 80E1      		ldi r24,lo8(16)
 1478 072e 0E94 0000 		call nrk_gpio_set
 1479 0732 81E0      		ldi r24,lo8(1)
 409:../../../nano-RK/src/platform/micaZ/source/ulib.c **** return -1;
 410:../../../nano-RK/src/platform/micaZ/source/ulib.c **** }
 1481               	.LM106:
 1482 0734 0895      		ret
 1484               	.Lscope13:
 1486               		.stabd	78,0,0
 1489               	.global	nrk_led_set
 1491               	nrk_led_set:
 1492               		.stabd	46,0,0
 411:../../../nano-RK/src/platform/micaZ/source/ulib.c **** 
 412:../../../nano-RK/src/platform/micaZ/source/ulib.c **** int8_t nrk_led_set( int led )
 413:../../../nano-RK/src/platform/micaZ/source/ulib.c **** {
 1494               	.LM107:
 1495               	.LFBB14:
 1496               	/* prologue: function */
 1497               	/* frame size = 0 */
 414:../../../nano-RK/src/platform/micaZ/source/ulib.c **** if(led==0) { nrk_gpio_clr(NRK_LED_0); return 1; }
 1499               	.LM108:
 1500 0736 0097      		sbiw r24,0
 1501 0738 01F4      		brne .L142
 1502 073a 80E0      		ldi r24,lo8(0)
 1503 073c 00C0      		rjmp .L147
 1504               	.L142:
 415:../../../nano-RK/src/platform/micaZ/source/ulib.c **** if(led==1) { nrk_gpio_clr(NRK_LED_1); return 1; }
 1506               	.LM109:
 1507 073e 8130      		cpi r24,1
 1508 0740 9105      		cpc r25,__zero_reg__
 1509 0742 01F4      		brne .L144
 1510 0744 88E0      		ldi r24,lo8(8)
 1511               	.L147:
 1512 0746 0E94 0000 		call nrk_gpio_clr
 1513 074a 81E0      		ldi r24,lo8(1)
 1514 074c 0895      		ret
 1515               	.L144:
 416:../../../nano-RK/src/platform/micaZ/source/ulib.c **** if(led==2) { nrk_gpio_clr(NRK_LED_2); return 1; }
 1517               	.LM110:
 1518 074e 8230      		cpi r24,2
 1519 0750 9105      		cpc r25,__zero_reg__
 1520 0752 01F0      		breq .L145
 1521 0754 8FEF      		ldi r24,lo8(-1)
 1522 0756 0895      		ret
 1523               	.L145:
 1524 0758 80E1      		ldi r24,lo8(16)
 1525 075a 0E94 0000 		call nrk_gpio_clr
 1526 075e 81E0      		ldi r24,lo8(1)
 417:../../../nano-RK/src/platform/micaZ/source/ulib.c **** return -1;
 418:../../../nano-RK/src/platform/micaZ/source/ulib.c **** }
 1528               	.LM111:
 1529 0760 0895      		ret
 1531               	.Lscope14:
 1533               		.stabd	78,0,0
 1536               	.global	putc0
 1538               	putc0:
 1539               		.stabd	46,0,0
 419:../../../nano-RK/src/platform/micaZ/source/ulib.c **** /*
 420:../../../nano-RK/src/platform/micaZ/source/ulib.c **** void IO_SET_E(uint8_t pin)
 421:../../../nano-RK/src/platform/micaZ/source/ulib.c **** {
 422:../../../nano-RK/src/platform/micaZ/source/ulib.c **** PORTE |= BM(pin);
 423:../../../nano-RK/src/platform/micaZ/source/ulib.c **** }
 424:../../../nano-RK/src/platform/micaZ/source/ulib.c **** 
 425:../../../nano-RK/src/platform/micaZ/source/ulib.c **** void IO_CLR_E(uint8_t pin)
 426:../../../nano-RK/src/platform/micaZ/source/ulib.c **** {
 427:../../../nano-RK/src/platform/micaZ/source/ulib.c **** PORTE &= ~BM(pin);
 428:../../../nano-RK/src/platform/micaZ/source/ulib.c **** }
 429:../../../nano-RK/src/platform/micaZ/source/ulib.c **** 
 430:../../../nano-RK/src/platform/micaZ/source/ulib.c **** void IO_SET_F(uint8_t pin)
 431:../../../nano-RK/src/platform/micaZ/source/ulib.c **** {
 432:../../../nano-RK/src/platform/micaZ/source/ulib.c **** PORTF |= BM(pin);
 433:../../../nano-RK/src/platform/micaZ/source/ulib.c **** }
 434:../../../nano-RK/src/platform/micaZ/source/ulib.c **** 
 435:../../../nano-RK/src/platform/micaZ/source/ulib.c **** void IO_CLR_F(uint8_t pin)
 436:../../../nano-RK/src/platform/micaZ/source/ulib.c **** {
 437:../../../nano-RK/src/platform/micaZ/source/ulib.c **** PORTF &= ~BM(pin);
 438:../../../nano-RK/src/platform/micaZ/source/ulib.c **** }
 439:../../../nano-RK/src/platform/micaZ/source/ulib.c **** */
 440:../../../nano-RK/src/platform/micaZ/source/ulib.c **** 
 441:../../../nano-RK/src/platform/micaZ/source/ulib.c **** void putc0(char x)
 442:../../../nano-RK/src/platform/micaZ/source/ulib.c **** {
 1541               	.LM112:
 1542               	.LFBB15:
 1543               	/* prologue: function */
 1544               	/* frame size = 0 */
 1545               	.L149:
 443:../../../nano-RK/src/platform/micaZ/source/ulib.c ****      UART0_WAIT_AND_SEND(x);
 1547               	.LM113:
 1548 0762 5D9B      		sbis 43-0x20,5
 1549 0764 00C0      		rjmp .L149
 1550 0766 5D98      		cbi 43-0x20,5
 1551 0768 8CB9      		out 44-0x20,r24
 1552               	/* epilogue start */
 444:../../../nano-RK/src/platform/micaZ/source/ulib.c **** }
 1554               	.LM114:
 1555 076a 0895      		ret
 1557               	.Lscope15:
 1559               		.stabd	78,0,0
 1562               	.global	putc1
 1564               	putc1:
 1565               		.stabd	46,0,0
 445:../../../nano-RK/src/platform/micaZ/source/ulib.c **** 
 446:../../../nano-RK/src/platform/micaZ/source/ulib.c **** void putc1(char x)
 447:../../../nano-RK/src/platform/micaZ/source/ulib.c **** {
 1567               	.LM115:
 1568               	.LFBB16:
 1569               	/* prologue: function */
 1570               	/* frame size = 0 */
 1571               	.L153:
 448:../../../nano-RK/src/platform/micaZ/source/ulib.c ****      UART1_WAIT_AND_SEND(x);
 1573               	.LM116:
 1574 076c 9091 9B00 		lds r25,155
 1575 0770 95FF      		sbrs r25,5
 1576 0772 00C0      		rjmp .L153
 1577 0774 9091 9B00 		lds r25,155
 1578 0778 9F7D      		andi r25,lo8(-33)
 1579 077a 9093 9B00 		sts 155,r25
 1580 077e 8093 9C00 		sts 156,r24
 1581               	/* epilogue start */
 449:../../../nano-RK/src/platform/micaZ/source/ulib.c **** }
 1583               	.LM117:
 1584 0782 0895      		ret
 1586               	.Lscope16:
 1588               		.stabd	78,0,0
 1590               	.global	setup_uart0
 1592               	setup_uart0:
 1593               		.stabd	46,0,0
 450:../../../nano-RK/src/platform/micaZ/source/ulib.c **** 
 451:../../../nano-RK/src/platform/micaZ/source/ulib.c **** /* print uart string */
 452:../../../nano-RK/src/platform/micaZ/source/ulib.c **** /*
 453:../../../nano-RK/src/platform/micaZ/source/ulib.c **** void printus1(char *x) 
 454:../../../nano-RK/src/platform/micaZ/source/ulib.c **** {
 455:../../../nano-RK/src/platform/micaZ/source/ulib.c ****      int i=0;
 456:../../../nano-RK/src/platform/micaZ/source/ulib.c ****      while(x[i]!='\0'){
 457:../../../nano-RK/src/platform/micaZ/source/ulib.c ****      UART1_WAIT_AND_SEND(x[i]);
 458:../../../nano-RK/src/platform/micaZ/source/ulib.c ****      i++;     
 459:../../../nano-RK/src/platform/micaZ/source/ulib.c ****      }
 460:../../../nano-RK/src/platform/micaZ/source/ulib.c **** }
 461:../../../nano-RK/src/platform/micaZ/source/ulib.c **** 
 462:../../../nano-RK/src/platform/micaZ/source/ulib.c **** void printus0(char *x) 
 463:../../../nano-RK/src/platform/micaZ/source/ulib.c **** {
 464:../../../nano-RK/src/platform/micaZ/source/ulib.c ****      int i=0;
 465:../../../nano-RK/src/platform/micaZ/source/ulib.c ****      while(x[i]!='\0'){
 466:../../../nano-RK/src/platform/micaZ/source/ulib.c ****      UART0_WAIT_AND_SEND(x[i]);
 467:../../../nano-RK/src/platform/micaZ/source/ulib.c ****      i++;     
 468:../../../nano-RK/src/platform/micaZ/source/ulib.c ****      }
 469:../../../nano-RK/src/platform/micaZ/source/ulib.c **** }
 470:../../../nano-RK/src/platform/micaZ/source/ulib.c **** */
 471:../../../nano-RK/src/platform/micaZ/source/ulib.c **** void setup_uart0(uint16_t baudrate)
 472:../../../nano-RK/src/platform/micaZ/source/ulib.c **** {
 1595               	.LM118:
 1596               	.LFBB17:
 1597               	/* prologue: function */
 1598               	/* frame size = 0 */
 473:../../../nano-RK/src/platform/micaZ/source/ulib.c **** //INIT_UART1( UART_BAUDRATE_115K2, (UART_OPT_NO_PARITY|UART_OPT_8_BITS_PER_CHAR|UART_OPT_ONE_STOP_B
 474:../../../nano-RK/src/platform/micaZ/source/ulib.c **** INIT_UART0( baudrate, (UART_OPT_NO_PARITY|UART_OPT_8_BITS_PER_CHAR|UART_OPT_ONE_STOP_BIT));
 1600               	.LM119:
 1601 0784 9093 9000 		sts 144,r25
 1602 0788 89B9      		out 41-0x20,r24
 1603 078a 86E0      		ldi r24,lo8(6)
 1604 078c 8093 9500 		sts 149,r24
 1605 0790 5298      		cbi 42-0x20,2
 1606 0792 599A      		sbi 43-0x20,1
 475:../../../nano-RK/src/platform/micaZ/source/ulib.c **** ENABLE_UART0();
 1608               	.LM120:
 1609 0794 8AB1      		in r24,42-0x20
 1610 0796 8861      		ori r24,lo8(24)
 1611 0798 8AB9      		out 42-0x20,r24
 1612               	/* epilogue start */
 476:../../../nano-RK/src/platform/micaZ/source/ulib.c **** }
 1614               	.LM121:
 1615 079a 0895      		ret
 1617               	.Lscope17:
 1619               		.stabd	78,0,0
 1621               	.global	setup_uart1
 1623               	setup_uart1:
 1624               		.stabd	46,0,0
 477:../../../nano-RK/src/platform/micaZ/source/ulib.c **** 
 478:../../../nano-RK/src/platform/micaZ/source/ulib.c **** 
 479:../../../nano-RK/src/platform/micaZ/source/ulib.c **** /**
 480:../../../nano-RK/src/platform/micaZ/source/ulib.c ****  * nrk_setup_uart()
 481:../../../nano-RK/src/platform/micaZ/source/ulib.c ****  *
 482:../../../nano-RK/src/platform/micaZ/source/ulib.c ****  * Sets a default uart for a given platform and
 483:../../../nano-RK/src/platform/micaZ/source/ulib.c ****  * direct stdin and stdout to that port.
 484:../../../nano-RK/src/platform/micaZ/source/ulib.c ****  *
 485:../../../nano-RK/src/platform/micaZ/source/ulib.c ****  * More advanced UART usage will require manually
 486:../../../nano-RK/src/platform/micaZ/source/ulib.c ****  * setting parameters.
 487:../../../nano-RK/src/platform/micaZ/source/ulib.c ****  */
 488:../../../nano-RK/src/platform/micaZ/source/ulib.c **** void nrk_setup_uart(uint16_t baudrate)
 489:../../../nano-RK/src/platform/micaZ/source/ulib.c **** {
 490:../../../nano-RK/src/platform/micaZ/source/ulib.c **** 
 491:../../../nano-RK/src/platform/micaZ/source/ulib.c ****   //setup_uart1(baudrate);
 492:../../../nano-RK/src/platform/micaZ/source/ulib.c ****   setup_uart0(baudrate);
 493:../../../nano-RK/src/platform/micaZ/source/ulib.c **** 
 494:../../../nano-RK/src/platform/micaZ/source/ulib.c ****   stdout = fdevopen( putc0, getc0);
 495:../../../nano-RK/src/platform/micaZ/source/ulib.c ****   stdin = fdevopen( putc0, getc0);
 496:../../../nano-RK/src/platform/micaZ/source/ulib.c **** 
 497:../../../nano-RK/src/platform/micaZ/source/ulib.c **** #ifdef NRK_UART_BUF
 498:../../../nano-RK/src/platform/micaZ/source/ulib.c ****    uart_rx_signal=nrk_signal_create();
 499:../../../nano-RK/src/platform/micaZ/source/ulib.c ****    if(uart_rx_signal==NRK_ERROR) nrk_error_add(NRK_SIGNAL_CREATE_ERROR);
 500:../../../nano-RK/src/platform/micaZ/source/ulib.c ****    uart_rx_buf_start=0;
 501:../../../nano-RK/src/platform/micaZ/source/ulib.c ****    uart_rx_buf_end=0;
 502:../../../nano-RK/src/platform/micaZ/source/ulib.c ****    ENABLE_UART0_RX_INT();
 503:../../../nano-RK/src/platform/micaZ/source/ulib.c **** #endif
 504:../../../nano-RK/src/platform/micaZ/source/ulib.c **** 
 505:../../../nano-RK/src/platform/micaZ/source/ulib.c **** 
 506:../../../nano-RK/src/platform/micaZ/source/ulib.c **** 
 507:../../../nano-RK/src/platform/micaZ/source/ulib.c **** }
 508:../../../nano-RK/src/platform/micaZ/source/ulib.c **** 
 509:../../../nano-RK/src/platform/micaZ/source/ulib.c **** void setup_uart1(uint16_t baudrate)
 510:../../../nano-RK/src/platform/micaZ/source/ulib.c **** {
 1626               	.LM122:
 1627               	.LFBB18:
 1628               	/* prologue: function */
 1629               	/* frame size = 0 */
 511:../../../nano-RK/src/platform/micaZ/source/ulib.c **** //INIT_UART1( UART_BAUDRATE_115K2, (UART_OPT_NO_PARITY|UART_OPT_8_BITS_PER_CHAR|UART_OPT_ONE_STOP_B
 512:../../../nano-RK/src/platform/micaZ/source/ulib.c **** INIT_UART1( baudrate, (UART_OPT_NO_PARITY|UART_OPT_8_BITS_PER_CHAR|UART_OPT_ONE_STOP_BIT));
 1631               	.LM123:
 1632 079c 9093 9800 		sts 152,r25
 1633 07a0 8093 9900 		sts 153,r24
 1634 07a4 86E0      		ldi r24,lo8(6)
 1635 07a6 8093 9D00 		sts 157,r24
 1636 07aa EAE9      		ldi r30,lo8(154)
 1637 07ac F0E0      		ldi r31,hi8(154)
 1638 07ae 8081      		ld r24,Z
 1639 07b0 8B7F      		andi r24,lo8(-5)
 1640 07b2 8083      		st Z,r24
 1641 07b4 ABE9      		ldi r26,lo8(155)
 1642 07b6 B0E0      		ldi r27,hi8(155)
 1643 07b8 8C91      		ld r24,X
 1644 07ba 8260      		ori r24,lo8(2)
 1645 07bc 8C93      		st X,r24
 513:../../../nano-RK/src/platform/micaZ/source/ulib.c **** ENABLE_UART1();
 1647               	.LM124:
 1648 07be 8081      		ld r24,Z
 1649 07c0 8861      		ori r24,lo8(24)
 1650 07c2 8083      		st Z,r24
 1651               	/* epilogue start */
 514:../../../nano-RK/src/platform/micaZ/source/ulib.c **** }
 1653               	.LM125:
 1654 07c4 0895      		ret
 1656               	.Lscope18:
 1658               		.stabd	78,0,0
 1660               	.global	getc1
 1662               	getc1:
 1663               		.stabd	46,0,0
 515:../../../nano-RK/src/platform/micaZ/source/ulib.c **** 
 516:../../../nano-RK/src/platform/micaZ/source/ulib.c **** 
 517:../../../nano-RK/src/platform/micaZ/source/ulib.c **** 
 518:../../../nano-RK/src/platform/micaZ/source/ulib.c **** char getc1(void){
 1665               	.LM126:
 1666               	.LFBB19:
 1667               	/* prologue: function */
 1668               	/* frame size = 0 */
 1669               	.L161:
 519:../../../nano-RK/src/platform/micaZ/source/ulib.c **** 	unsigned char tmp;
 520:../../../nano-RK/src/platform/micaZ/source/ulib.c **** 	UART1_WAIT_AND_RECEIVE(tmp);
 1671               	.LM127:
 1672 07c6 8091 9B00 		lds r24,155
 1673 07ca 87FF      		sbrs r24,7
 1674 07cc 00C0      		rjmp .L161
 1675 07ce 8091 9B00 		lds r24,155
 1676 07d2 8F77      		andi r24,lo8(127)
 1677 07d4 8093 9B00 		sts 155,r24
 1678 07d8 8091 9C00 		lds r24,156
 1679               	/* epilogue start */
 521:../../../nano-RK/src/platform/micaZ/source/ulib.c **** 	return tmp;
 522:../../../nano-RK/src/platform/micaZ/source/ulib.c **** }
 1681               	.LM128:
 1682 07dc 0895      		ret
 1687               	.Lscope19:
 1689               		.stabd	78,0,0
 1692               	.global	nrk_setup_uart
 1694               	nrk_setup_uart:
 1695               		.stabd	46,0,0
 1697               	.LM129:
 1698               	.LFBB20:
 1699 07de 0F93      		push r16
 1700 07e0 1F93      		push r17
 1701 07e2 CF93      		push r28
 1702 07e4 DF93      		push r29
 1703               	/* prologue: function */
 1704               	/* frame size = 0 */
 1706               	.LM130:
 1707 07e6 0E94 0000 		call setup_uart0
 1709               	.LM131:
 1710 07ea 00E0      		ldi r16,lo8(gs(putc0))
 1711 07ec 10E0      		ldi r17,hi8(gs(putc0))
 1712 07ee C0E0      		ldi r28,lo8(gs(getc0))
 1713 07f0 D0E0      		ldi r29,hi8(gs(getc0))
 1714 07f2 C801      		movw r24,r16
 1715 07f4 BE01      		movw r22,r28
 1716 07f6 0E94 0000 		call fdevopen
 1717 07fa 9093 0000 		sts (__iob+2)+1,r25
 1718 07fe 8093 0000 		sts __iob+2,r24
 1720               	.LM132:
 1721 0802 C801      		movw r24,r16
 1722 0804 BE01      		movw r22,r28
 1723 0806 0E94 0000 		call fdevopen
 1724 080a 9093 0000 		sts (__iob)+1,r25
 1725 080e 8093 0000 		sts __iob,r24
 1726               	/* epilogue start */
 1728               	.LM133:
 1729 0812 DF91      		pop r29
 1730 0814 CF91      		pop r28
 1731 0816 1F91      		pop r17
 1732 0818 0F91      		pop r16
 1733 081a 0895      		ret
 1735               	.Lscope20:
 1737               		.stabd	78,0,0
 1740               	.global	nrk_kprintf
 1742               	nrk_kprintf:
 1743               		.stabd	46,0,0
 1745               	.LM134:
 1746               	.LFBB21:
 1747 081c CF93      		push r28
 1748 081e DF93      		push r29
 1749               	/* prologue: function */
 1750               	/* frame size = 0 */
 1751 0820 EC01      		movw r28,r24
 1753               	.LM135:
 1754 0822 00C0      		rjmp .L167
 1755               	.L168:
 1757               	.LM136:
 1758 0824 6091 0000 		lds r22,__iob+2
 1759 0828 7091 0000 		lds r23,(__iob+2)+1
 1760 082c 90E0      		ldi r25,lo8(0)
 1761 082e 0E94 0000 		call fputc
 1762               	.L167:
 1763 0832 FE01      		movw r30,r28
 1764               	.LBB2:
 1766               	.LM137:
 1767 0834 2196      		adiw r28,1
 1768               	/* #APP */
 1769               	 ;  137 "../../../nano-RK/src/platform/micaZ/source/ulib.c" 1
 1770 0836 8491      		lpm r24, Z
 1771               		
 1772               	 ;  0 "" 2
 1773               	/* #NOAPP */
 1774               	.LBE2:
 1775 0838 8823      		tst r24
 1776 083a 01F4      		brne .L168
 1777               	/* epilogue start */
 1779               	.LM138:
 1780 083c DF91      		pop r29
 1781 083e CF91      		pop r28
 1782 0840 0895      		ret
 1788               	.Lscope21:
 1790               		.stabd	78,0,0
 1791               	.global	NRK_LED_0
 1792               		.data
 1795               	NRK_LED_0:
 1796 0000 00        		.skip 1,0
 1797               	.global	NRK_LED_1
 1800               	NRK_LED_1:
 1801 0001 08        		.byte	8
 1802               	.global	NRK_LED_2
 1805               	NRK_LED_2:
 1806 0002 10        		.byte	16
 1807               	.global	NRK_VREG_EN
 1810               	NRK_VREG_EN:
 1811 0003 28        		.byte	40
 1812               	.global	NRK_RESET_N
 1815               	NRK_RESET_N:
 1816 0004 30        		.byte	48
 1817               	.global	NRK_CSN
 1820               	NRK_CSN:
 1821 0005 01        		.byte	1
 1822               	.global	NRK_SCK
 1825               	NRK_SCK:
 1826 0006 09        		.byte	9
 1827               	.global	NRK_MOSI
 1830               	NRK_MOSI:
 1831 0007 11        		.byte	17
 1832               	.global	NRK_MISO
 1835               	NRK_MISO:
 1836 0008 19        		.byte	25
 1837               	.global	NRK_FIFO
 1840               	NRK_FIFO:
 1841 0009 39        		.byte	57
 1842               	.global	NRK_UART1_RXD
 1845               	NRK_UART1_RXD:
 1846 000a 13        		.byte	19
 1847               	.global	NRK_UART1_TXD
 1850               	NRK_UART1_TXD:
 1851 000b 1B        		.byte	27
 1852               	.global	NRK_SFD
 1855               	NRK_SFD:
 1856 000c 23        		.byte	35
 1857               	.global	NRK_UART1_RTS
 1860               	NRK_UART1_RTS:
 1861 000d 2B        		.byte	43
 1862               	.global	NRK_CCA
 1865               	NRK_CCA:
 1866 000e 33        		.byte	51
 1867               	.global	NRK_UART1_CTS
 1870               	NRK_UART1_CTS:
 1871 000f 3B        		.byte	59
 1872               	.global	NRK_UART0_RXD
 1875               	NRK_UART0_RXD:
 1876 0010 04        		.byte	4
 1877               	.global	NRK_UART0_TXD
 1880               	NRK_UART0_TXD:
 1881 0011 0C        		.byte	12
 1882               	.global	NRK_FIFOP
 1885               	NRK_FIFOP:
 1886 0012 34        		.byte	52
 1887               	.global	NRK_ADC_INPUT_0
 1890               	NRK_ADC_INPUT_0:
 1891 0013 05        		.byte	5
 1892               	.global	NRK_ADC_INPUT_1
 1895               	NRK_ADC_INPUT_1:
 1896 0014 0D        		.byte	13
 1897               	.global	NRK_ADC_INPUT_2
 1900               	NRK_ADC_INPUT_2:
 1901 0015 15        		.byte	21
 1902               	.global	NRK_ADC_INPUT_3
 1905               	NRK_ADC_INPUT_3:
 1906 0016 1D        		.byte	29
 1907               	.global	NRK_ADC_INPUT_6
 1910               	NRK_ADC_INPUT_6:
 1911 0017 35        		.byte	53
 1912               	.global	NRK_ADC_INPUT_7
 1915               	NRK_ADC_INPUT_7:
 1916 0018 3D        		.byte	61
 1917               	.global	NRK_DEBUG_0
 1920               	NRK_DEBUG_0:
 1921 0019 0A        		.byte	10
 1922               	.global	NRK_DEBUG_1
 1925               	NRK_DEBUG_1:
 1926 001a 12        		.byte	18
 1927               	.global	NRK_DEBUG_2
 1930               	NRK_DEBUG_2:
 1931 001b FF        		.byte	-1
 1932               	.global	NRK_DEBUG_3
 1935               	NRK_DEBUG_3:
 1936 001c FF        		.byte	-1
 1937               	.global	NRK_LED_3
 1940               	NRK_LED_3:
 1941 001d FF        		.byte	-1
 1942               	.global	NRK_BLED
 1945               	NRK_BLED:
 1946 001e FF        		.byte	-1
 1947               	.global	NRK_SPI_SS
 1950               	NRK_SPI_SS:
 1951 001f FF        		.byte	-1
 1952               	.global	NRK_GPIO26
 1955               	NRK_GPIO26:
 1956 0020 FF        		.byte	-1
 1957               	.global	NRK_GPIO28
 1960               	NRK_GPIO28:
 1961 0021 FF        		.byte	-1
 1962               	.global	NRK_GPIO34
 1965               	NRK_GPIO34:
 1966 0022 FF        		.byte	-1
 1967               		.comm _nrk_signal_list,4,1
 1968               		.comm error_task,1,1
 1969               		.comm error_num,1,1
 2008               		.text
 2010               	.Letext0:
DEFINED SYMBOLS
                            *ABS*:00000000 ulib.c
     /tmp/ccLDKvzR.s:2      *ABS*:0000003f __SREG__
     /tmp/ccLDKvzR.s:3      *ABS*:0000003e __SP_H__
     /tmp/ccLDKvzR.s:4      *ABS*:0000003d __SP_L__
     /tmp/ccLDKvzR.s:5      *ABS*:00000000 __tmp_reg__
     /tmp/ccLDKvzR.s:6      *ABS*:00000001 __zero_reg__
     /tmp/ccLDKvzR.s:119    .text:00000000 nrk_uart_rx_signal_get
     /tmp/ccLDKvzR.s:139    .text:00000004 nrk_uart_data_ready
     /tmp/ccLDKvzR.s:181    .text:00000026 getc0
     /tmp/ccLDKvzR.s:209    .text:00000030 nrk_setup_ports
     /tmp/ccLDKvzR.s:248    .text:00000052 nrk_gpio_set
     /tmp/ccLDKvzR.s:408    .text:00000142 nrk_gpio_clr
     /tmp/ccLDKvzR.s:579    .text:00000248 nrk_gpio_get
     /tmp/ccLDKvzR.s:675    .text:000002b4 nrk_gpio_pullups
     /tmp/ccLDKvzR.s:709    .text:000002c8 nrk_gpio_toggle
     /tmp/ccLDKvzR.s:1037   .text:000004c2 nrk_gpio_direction
     /tmp/ccLDKvzR.s:1377   .text:000006da nrk_get_button
     /tmp/ccLDKvzR.s:1397   .text:000006de nrk_led_toggle
     /tmp/ccLDKvzR.s:1444   .text:0000070a nrk_led_clr
     /tmp/ccLDKvzR.s:1491   .text:00000736 nrk_led_set
     /tmp/ccLDKvzR.s:1538   .text:00000762 putc0
     /tmp/ccLDKvzR.s:1564   .text:0000076c putc1
     /tmp/ccLDKvzR.s:1592   .text:00000784 setup_uart0
     /tmp/ccLDKvzR.s:1623   .text:0000079c setup_uart1
     /tmp/ccLDKvzR.s:1662   .text:000007c6 getc1
     /tmp/ccLDKvzR.s:1694   .text:000007de nrk_setup_uart
     /tmp/ccLDKvzR.s:1742   .text:0000081c nrk_kprintf
     /tmp/ccLDKvzR.s:1795   .data:00000000 NRK_LED_0
     /tmp/ccLDKvzR.s:1800   .data:00000001 NRK_LED_1
     /tmp/ccLDKvzR.s:1805   .data:00000002 NRK_LED_2
     /tmp/ccLDKvzR.s:1810   .data:00000003 NRK_VREG_EN
     /tmp/ccLDKvzR.s:1815   .data:00000004 NRK_RESET_N
     /tmp/ccLDKvzR.s:1820   .data:00000005 NRK_CSN
     /tmp/ccLDKvzR.s:1825   .data:00000006 NRK_SCK
     /tmp/ccLDKvzR.s:1830   .data:00000007 NRK_MOSI
     /tmp/ccLDKvzR.s:1835   .data:00000008 NRK_MISO
     /tmp/ccLDKvzR.s:1840   .data:00000009 NRK_FIFO
     /tmp/ccLDKvzR.s:1845   .data:0000000a NRK_UART1_RXD
     /tmp/ccLDKvzR.s:1850   .data:0000000b NRK_UART1_TXD
     /tmp/ccLDKvzR.s:1855   .data:0000000c NRK_SFD
     /tmp/ccLDKvzR.s:1860   .data:0000000d NRK_UART1_RTS
     /tmp/ccLDKvzR.s:1865   .data:0000000e NRK_CCA
     /tmp/ccLDKvzR.s:1870   .data:0000000f NRK_UART1_CTS
     /tmp/ccLDKvzR.s:1875   .data:00000010 NRK_UART0_RXD
     /tmp/ccLDKvzR.s:1880   .data:00000011 NRK_UART0_TXD
     /tmp/ccLDKvzR.s:1885   .data:00000012 NRK_FIFOP
     /tmp/ccLDKvzR.s:1890   .data:00000013 NRK_ADC_INPUT_0
     /tmp/ccLDKvzR.s:1895   .data:00000014 NRK_ADC_INPUT_1
     /tmp/ccLDKvzR.s:1900   .data:00000015 NRK_ADC_INPUT_2
     /tmp/ccLDKvzR.s:1905   .data:00000016 NRK_ADC_INPUT_3
     /tmp/ccLDKvzR.s:1910   .data:00000017 NRK_ADC_INPUT_6
     /tmp/ccLDKvzR.s:1915   .data:00000018 NRK_ADC_INPUT_7
     /tmp/ccLDKvzR.s:1920   .data:00000019 NRK_DEBUG_0
     /tmp/ccLDKvzR.s:1925   .data:0000001a NRK_DEBUG_1
     /tmp/ccLDKvzR.s:1930   .data:0000001b NRK_DEBUG_2
     /tmp/ccLDKvzR.s:1935   .data:0000001c NRK_DEBUG_3
     /tmp/ccLDKvzR.s:1940   .data:0000001d NRK_LED_3
     /tmp/ccLDKvzR.s:1945   .data:0000001e NRK_BLED
     /tmp/ccLDKvzR.s:1950   .data:0000001f NRK_SPI_SS
     /tmp/ccLDKvzR.s:1955   .data:00000020 NRK_GPIO26
     /tmp/ccLDKvzR.s:1960   .data:00000021 NRK_GPIO28
     /tmp/ccLDKvzR.s:1965   .data:00000022 NRK_GPIO34
                            *COM*:00000004 _nrk_signal_list
                            *COM*:00000001 error_task
                            *COM*:00000001 error_num

UNDEFINED SYMBOLS
__do_copy_data
__do_clear_bss
fdevopen
__iob
fputc
